Microchip Technology Inc, vv3_23 (b) g

Tool Name:
  c:\program files (x86)\microchip\mplab c30\bin\bin\..\bin/pic30-coff-ld.exe

Command:
  -p24FJ256GB110 \
  -oWAT89EC-8_RU_B_V1.27.cof \
  -Lc:/program files (x86)/microchip/mplab c30/bin/bin/.. \
  -Lc:/program files (x86)/microchip/mplab c30/bin/bin/../../lib \
  -Lc:/program files (x86)/microchip/mplab c30/bin/bin/../../support/generic/gld \
  -Lc:/program files (x86)/microchip/mplab c30/bin/bin/../../lib/PIC24F \
  -Lc:/program files (x86)/microchip/mplab c30/bin/bin/../../support/PIC24F/gld \
  -Lc:/program files (x86)/microchip/mplab c30/bin/bin/../../lib/PIC24H \
  -Lc:/program files (x86)/microchip/mplab c30/bin/bin/../../support/PIC24H/gld \
  -Lc:/program files (x86)/microchip/mplab c30/bin/bin/../../lib/dsPIC30F \
  -Lc:/program files (x86)/microchip/mplab c30/bin/bin/../../support/dsPIC30F/gld \
  -Lc:/program files (x86)/microchip/mplab c30/bin/bin/../../lib/dsPIC33F \
  -Lc:/program files (x86)/microchip/mplab c30/bin/bin/../../support/dsPIC33F/gld \
  WAT89EC-8_RU_B-temp\Beep.o \
  WAT89EC-8_RU_B-temp\Button.o \
  WAT89EC-8_RU_B-temp\CheckBox.o \
  WAT89EC-8_RU_B-temp\EditBox.o \
  WAT89EC-8_RU_B-temp\EEPROM.o \
  WAT89EC-8_RU_B-temp\Fonts.o \
  WAT89EC-8_RU_B-temp\GOL.o \
  WAT89EC-8_RU_B-temp\GroupBox.o \
  WAT89EC-8_RU_B-temp\HX8347A.o \
  WAT89EC-8_RU_B-temp\ListBox.o \
  WAT89EC-8_RU_B-temp\MainDemo.o \
  WAT89EC-8_RU_B-temp\Meter.o \
  WAT89EC-8_RU_B-temp\Pgps.o \
  WAT89EC-8_RU_B-temp\PIC24 HID Bootloader Remapping.o \
  WAT89EC-8_RU_B-temp\Picture.o \
  WAT89EC-8_RU_B-temp\Pictures PIC24.o \
  WAT89EC-8_RU_B-temp\Primitive.o \
  WAT89EC-8_RU_B-temp\printer.o \
  WAT89EC-8_RU_B-temp\ProgressBar.o \
  WAT89EC-8_RU_B-temp\RadioButton.o \
  WAT89EC-8_RU_B-temp\RoundDial.o \
  WAT89EC-8_RU_B-temp\rtcc.o \
  WAT89EC-8_RU_B-temp\S6D0129_S6D0139.o \
  WAT89EC-8_RU_B-temp\SideButtons.o \
  WAT89EC-8_RU_B-temp\Slider.o \
  WAT89EC-8_RU_B-temp\StaticText.o \
  WAT89EC-8_RU_B-temp\TouchScreen.o \
  WAT89EC-8_RU_B-temp\usb_descriptors.o \
  WAT89EC-8_RU_B-temp\usb_device.o \
  WAT89EC-8_RU_B-temp\usb_function_hid.o \
  WAT89EC-8_RU_B-temp\usb_hal_pic24.o \
  WAT89EC-8_RU_B-temp\Window.o \
  WAT89EC-8_RU_B-temp\ziku.o \
  -Tp24FJ256GB110.gld.00 \
  --defsym=__MPLAB_BUILD=1 \
  --heap=5000 \
  -Map=WAT89EC-8_RU_B_V1.27.map \
  --report-mem \
  -start-group \
  --library=pic30-coff \
  --library=m-coff \
  --library=c-coff \
  -end-group \

Archive member included because of file (symbol)

c:/program files (x86)/microchip/mplab c30/bin/bin/../../lib\libpic30-coff.a(crt0_standard.o)
                              (_resetPRI)
c:/program files (x86)/microchip/mplab c30/bin/bin/../../lib\libpic30-coff.a(data_init_standard.o)
                              c:/program files (x86)/microchip/mplab c30/bin/bin/../../lib\libpic30-coff.a(crt0_standard.o) (_data_init_standard)
c:/program files (x86)/microchip/mplab c30/bin/bin/../../lib\libm-coff.a(mulsi3.o)
                              WAT89EC-8_RU_B-temp\Beep.o (__mulsi3)
c:/program files (x86)/microchip/mplab c30/bin/bin/../../lib\libm-coff.a(udivsi3.o)
                              WAT89EC-8_RU_B-temp\Beep.o (__udivsi3)
c:/program files (x86)/microchip/mplab c30/bin/bin/../../lib\libm-coff.a(divsi3.o)
                              WAT89EC-8_RU_B-temp\TouchScreen.o (__divsi3)
c:/program files (x86)/microchip/mplab c30/bin/bin/../../lib\libc-coff.a(malloc.o)
                              WAT89EC-8_RU_B-temp\Button.o (malloc)
c:/program files (x86)/microchip/mplab c30/bin/bin/../../lib\libc-coff.a(free.o)
                              WAT89EC-8_RU_B-temp\GOL.o (free)
c:/program files (x86)/microchip/mplab c30/bin/bin/../../lib\libc-coff.a(memset.o)
                              WAT89EC-8_RU_B-temp\MainDemo.o (memset)
c:/program files (x86)/microchip/mplab c30/bin/bin/../../lib\libc-coff.a(strstr.o)
                              WAT89EC-8_RU_B-temp\Pgps.o (strstr)
c:/program files (x86)/microchip/mplab c30/bin/bin/../../lib\libc-coff.a(xgetmem.o)
                              c:/program files (x86)/microchip/mplab c30/bin/bin/../../lib\libc-coff.a(malloc.o) (_Getmem)
c:/program files (x86)/microchip/mplab c30/bin/bin/../../lib\libc-coff.a(strchr.o)
                              c:/program files (x86)/microchip/mplab c30/bin/bin/../../lib\libc-coff.a(strstr.o) (strchr)
c:/program files (x86)/microchip/mplab c30/bin/bin/../../lib\libpic30-coff.a(sbrk.o)
                              c:/program files (x86)/microchip/mplab c30/bin/bin/../../lib\libc-coff.a(xgetmem.o) (sbrk)
c:/program files (x86)/microchip/mplab c30/bin/bin/../../lib\libpic30-coff.a(brk.o)
                              c:/program files (x86)/microchip/mplab c30/bin/bin/../../lib\libpic30-coff.a(sbrk.o) (brk)


Program Memory  [Origin = 0x200, Length = 0x2a9f8]

section                    address   length (PC units)   length (bytes) (dec)
-------                    -------   -----------------   --------------------
.text                        0x200              0x148a          0x1ecf  (7887)
.text                       0x168a              0x1076          0x18b1  (6321)
_0310ec4051c95d17           0x2800                0x20            0x30  (48)
.text                       0x2820              0x1552          0x1ffb  (8187)
C:\Users\GEXUEY~1\AppData\Local\Temp/ccmCOYAl.s.scn1    0x3d72              0x138e          0x1d55  (7509)
C:\Users\GEXUEY~1\AppData\Local\Temp/ccmCOYAl.s.scn2    0x5100              0x138e          0x1d55  (7509)
C:\Users\GEXUEY~1\AppData\Local\Temp/ccmCOYAl.s.scn3    0x648e              0x138e          0x1d55  (7509)
.text                       0x781c               0x74e           0xaf5  (2805)
.text                       0x7f6a                0x80            0xc0  (192)
.isr                        0x7fea                 0x2             0x3  (3)
.const                      0x8000              0x658e          0x9855  (38997)
.text                       0xe58e              0x91d8          0xdac4  (56004)
C:\Users\GEXUEY~1\AppData\Local\Temp/ccmCOYAl.s.scn4   0x17766              0x138e          0x1d55  (7509)
C:\Users\GEXUEY~1\AppData\Local\Temp/ccmCOYAl.s.scn5   0x18af4              0x138e          0x1d55  (7509)
C:\Users\GEXUEY~1\AppData\Local\Temp/ccmCOYAl.s.scn6   0x19e82              0x138e          0x1d55  (7509)
C:\Users\GEXUEY~1\AppData\Local\Temp/ccmCOYAl.s.scn7   0x1b210              0x138e          0x1d55  (7509)
C:\Users\GEXUEY~1\AppData\Local\Temp/ccmCOYAl.s.scn8   0x1c59e              0x138e          0x1d55  (7509)
C:\Users\GEXUEY~1\AppData\Local\Temp/ccmCOYAl.s.scn9   0x1d92c              0x138e          0x1d55  (7509)
.dinit                     0x1ecba              0x12da          0x1c47  (7239)
.text                      0x1ff94               0xdba          0x1497  (5271)
C:\Users\GEXUEY~1\AppData\Local\Temp/ccmCOYAl.s.scn12   0x20d4e               0xc86          0x12c9  (4809)
C:\Users\GEXUEY~1\AppData\Local\Temp/ccmCOYAl.s.scn13   0x219d4               0xc86          0x12c9  (4809)
C:\Users\GEXUEY~1\AppData\Local\Temp/ccmCOYAl.s.scn14   0x2265a               0xc86          0x12c9  (4809)
C:\Users\GEXUEY~1\AppData\Local\Temp/ccmCOYAl.s.scn16   0x232e0               0xc86          0x12c9  (4809)
C:\Users\GEXUEY~1\AppData\Local\Temp/ccmCOYAl.s.scn17   0x23f66               0xc86          0x12c9  (4809)
.text                      0x24bec              0x1acc          0x2832  (10290)
.text                      0x266b8              0x1bd6          0x29c1  (10689)
C:\Users\GEXUEY~1\AppData\Local\Temp/ccmCOYAl.s.scn15   0x2828e               0x326           0x4b9  (1209)
C:\Users\GEXUEY~1\AppData\Local\Temp/ccmCOYAl.s.scn18   0x285b4               0x326           0x4b9  (1209)
.text                      0x288da              0x118a          0x1a4f  (6735)
C:\Users\GEXUEY~1\AppData\Local\Temp/ccmCOYAl.s.scn10   0x29a64               0x110           0x198  (408)
C:\Users\GEXUEY~1\AppData\Local\Temp/ccmCOYAl.s.scn11   0x29b74               0x110           0x198  (408)

                     Total program memory used (bytes):        0x3e628  (255528) 97%


Data Memory  [Origin = 0x800, Length = 0x4000]

section                    address      alignment gaps    total length  (dec)
-------                    -------      --------------    -------------------
.data                        0x800                   0          0x1968  (6504)
.bss                        0x2168                   0           0xb9a  (2970)
.data                       0x2d02                   0            0xf4  (244)
.bss                        0x2df6                   0             0xa  (10)
_0318f46051c95d29           0x2e00                   0            0x20  (32)
.data                       0x2e20                   0            0x48  (72)
.bss                        0x2e68                   0           0x132  (306)
.data                       0x2f9a                   0            0x28  (40)
.bss                        0x2fc2                   0            0x56  (86)
.data                       0x3018                   0             0xa  (10)
.bss                        0x3022                   0             0x8  (8)
.data                       0x302a                   0             0x8  (8)
.bss                        0x3032                   0            0x10  (16)
.data                       0x3042                   0             0x6  (6)
.bss                        0x3048                   0             0xc  (12)
.data                       0x3054                   0             0xc  (12)
.bss                        0x3060                   0             0x4  (4)
.data                       0x3064                   0             0x4  (4)
.bss                        0x3068                   0             0x4  (4)
.data                       0x306c                   0             0x2  (2)
.bss                        0x306e                   0             0x2  (2)
.heap                       0x3070                   0          0x1388  (5000)

                        Total data memory used (bytes):         0x3bf8  (15352) 93%


Dynamic Memory Usage

region                     address                      maximum length  (dec)
------                     -------                      ---------------------
heap                        0x3070                              0x1388  (5000)
stack                       0x43f8                               0x408  (1032)

                        Maximum dynamic memory (bytes):         0x1790  (6032)


External Symbols in Data Memory (by address):

                    0x0800                  _pTempabc
                    0x0868                  _pTempABC
                    0x08d0                  _KEYPADRUSSIAN
                    0x08e8                  _pTempRUSSIAN
                    0x0974                  _pTemprussian
                    0x09f8                  _pTempXchar
                    0x0a28                  _DTUpArrow
                    0x0a2a                  _DTDownArrow
                    0x0a2c                  _DTDoneText
                    0x0a2e                  _DTMinusSym
                    0x0a32                  _DTPlusSym
                    0x0a36                  _DTSetText
                    0x0a38                  _YearItems
                    0x0ab6                  _DayItems
                    0x0b70                  _MonthItems
                    0x0bb8                  _TenUnits
                    0x0c08                  _SoftwareID
                    0x0c22                  _Countdown
                    0x0c4a                  _BlueToothcount
                    0x0c4c                  _PeakScreen
                    0x0c4e                  _Jumptox
                    0x0c5e                  _savetemp
                    0x0c5f                  _Wetgas_d
                    0x0c60                  _Drygas_D
                    0x0c62                  _WetgasadustStr
                    0x0c6a                  _DrygasadustStr
                    0x0c72                  _UnumberStr
                    0x0c74                  _BnumberStr
                    0x0c76                  _update2
                    0x0c78                  _update1
                    0x0c7a                  _PDset
                    0x0c7c                  _Demarcate
                    0x0c7e                  _MarkTemp
                    0x0c80                  _serialnumberRecord
                    0x0c82                  _serialnumber
                    0x0c84                  _consbuffStr
                    0x0caa                  _TempbuffStr
                    0x0cd0                  _Flashbuff
                    0x0ed0                  _serialnumberStr
                    0x0edc                  _Mark4Str
                    0x0ee2                  _Mark3Str
                    0x0ee8                  _Mark2Str
                    0x0eee                  _Mark1Str
                    0x0ef4                  _T8Str
                    0x0efa                  _T7Str
                    0x0f00                  _T6Str
                    0x0f06                  _T5Str
                    0x0f0c                  _T4Str
                    0x0f12                  _T3Str
                    0x0f18                  _T2Str
                    0x0f1e                  _T1Str
                    0x0f24                  _Adj_tem
                    0x0f26                  _Adj_adc
                    0x0f28                  _DemarcateAD20
                    0x0f36                  _DemarcateAD19
                    0x0f44                  _DemarcateAD18
                    0x0f52                  _DemarcateAD17
                    0x0f60                  _DemarcateAD16
                    0x0f6e                  _DemarcateAD15
                    0x0f7c                  _DemarcateAD14
                    0x0f8a                  _MarkAD2
                    0x0f98                  _Marktem
                    0x0fa2                  _DemarcateAD13
                    0x0fb0                  _DemarcateAD12
                    0x0fbe                  _DemarcateAD11
                    0x0fcc                  _DemarcateAD10
                    0x0fda                  _DemarcateAD9
                    0x0fe8                  _DemarcateAD8
                    0x0ff6                  _DemarcateAD7
                    0x1004                  _DemarcateAD6
                    0x1012                  _DemarcateAD5
                    0x1020                  _DemarcateAD4
                    0x102e                  _DemarcateAD3
                    0x103c                  _DemarcateAD2
                    0x104a                  _DemarcateAD1
                    0x1058                  _DemarcateAD
                    0x1066                  _alocholdetecet
                    0x1068                  _ST_IRstatus
                    0x106a                  _ItemID
                    0x106c                  _Calibrate_Flag
                    0x106e                  _alarmON
                    0x1070                  _FirstIn
                    0x1072                  _Unit_Select
                    0x1074                  _Masklevel
                    0x1075                  _TestMode
                    0x1076                  _g_blow_time
                    0x1078                  _g_rtc_counter
                    0x107a                  _g_standby_time
                    0x107c                  _g_backlight_time
                    0x107e                  _BoolBatteryOFF
                    0x1080                  _status_pc
                    0x1082                  _CHK_PAPER_VAL
                    0x1084                  _AlcTypeaddress
                    0x1086                  _MAXCHAROld
                    0x1088                  _OperatorNameTempStr
                    0x10ae                  _DisplaydateTimeStr
                    0x10ea                  _prevState
                    0x10ec                  _AutooffSwitch
                    0x10ee                  _ChoicePrint
                    0x10f0                  _Pressflag
                    0x10f1                  _PrintSec
                    0x10f2                  _PrintCount
                    0x10f4                  _offcount
                    0x10f6                  _tick
                    0x10fa                  _PrescreenState
                    0x10fc                  _screenState
                    0x10fe                  _ptrBigArialFont
                    0x1100                  _ptrSmallAsianFont
                    0x1102                  _ptrLargeAsianFont
                    0x1104                  _blinkStatusValid
                    0x1106                  _USBInHandle
                    0x1108                  _USBOutHandle
                    0x110a                  _TradeMark_Print
                    0x1118                  _TradeMark_Title
                    0x1126                  _Version
                    0x1134                  _Serialnumber
                    0x114a                  _IDStr
                    0x1150                  _Sighstr
                    0x1154                  _Bluetoothstr
                    0x1168                  _EDITMarkstr
                    0x1174                  _TemperatureExtremelow
                    0x11a6                  _TemperatureExtremehigh
                    0x11da                  _Beyond25mgl
                    0x11e8                  _PeriodsText3
                    0x1214                  _PeriodsText2
                    0x1236                  _PeriodsText
                    0x125a                  _G_Print
                    0x1268                  _alcoholdetect
                    0x128e                  _Nextinspection
                    0x12b6                  _inspection
                    0x12c6                  _Sun
                    0x12ce                  _Sat
                    0x12d6                  _Fri
                    0x12de                  _Thu
                    0x12e6                  _Wed
                    0x12ee                  _Tue
                    0x12f6                  _Mon
                    0x12fe                  _print_add2
                    0x1306                  _print_add1
                    0x1316                  _WetCalibrationTest
                    0x133c                  _DryCalibrationTest
                    0x1362                  _CalibrationTeststr
                    0x138a                  _W_Gaschoosestr
                    0x13b2                  _caladjustWINstr
                    0x13ca                  _caladjustBTNstr
                    0x13d8                  _CaliPeriod
                    0x13f4                  _CalibrationTest
                    0x1418                  _Drycheck
                    0x142e                  _Dryprodure
                    0x1440                  _DryGasstr
                    0x1454                  _WetGasstr
                    0x1468                  _PROCCESING
                    0x1480                  _PROCCESINGwait
                    0x14a6                  _Totalstr
                    0x14b2                  _Cancel
                    0x14c4                  _DelectAllRecords
                    0x14ea                  _NotmatchStr
                    0x1508                  _SettingsuccessStr
                    0x1528                  _PasswordSettingStr
                    0x154a                  _Setpasswordstr
                    0x1566                  _Pointr
                    0x156c                  _Calibrationneed
                    0x158c                  _LockStr
                    0x159a                  _BeyondZeroStr
                    0x15a0                  _ZeroStr
                    0x15a4                  _NoAlocholstr
                    0x15d0                  _BlowDiscontinuedstr
                    0x15ec                  _UpArrowStr
                    0x15f4                  _SoundStr
                    0x15fe                  _Endstr
                    0x160a                  _Beginningstr
                    0x1618                  _Jumpstr
                    0x1628                  _Discontinuedstr
                    0x1644                  _Confirmpasswordstr
                    0x1676                  _EnterPasswordStr
                    0x169e                  _EEPROMEDIT
                    0x16b4                  _record_refuse
                    0x16b8                  _touch100
                    0x16ce                  _Alcoholdetected
                    0x16f4                  _Aircheckwinstr
                    0x1716                  _Aircheckstr
                    0x1738                  _Start
                    0x1744                  _Start_test
                    0x1776                  _Attachpipe
                    0x17a8                  _NumStored
                    0x17ca                  _PreCalDate
                    0x17f0                  _DEL_RU
                    0x17fa                  _DEL_EN
                    0x1802                  _SPACE_RU
                    0x1810                  _SPACE_EN
                    0x181c                  _ChangeRUStr
                    0x1824                  _ChangeENStr
                    0x182c                  _DemarcateshowStr
                    0x1832                  _DebugStr
                    0x1838                  _WaitStr
                    0x1844                  _ConnectToPCStr
                    0x1874                  _PlseConnectToPCStr
                    0x18a4                  _Item9Str
                    0x18cc                  _Item8Str
                    0x18f4                  _Item7Str
                    0x191c                  _Item6Str
                    0x1944                  _Item5Str
                    0x196c                  _Item4Str
                    0x1994                  _Item3Str
                    0x19bc                  _Item2Str
                    0x19e4                  _Item1Str
                    0x1a0c                  _Item0Str
                    0x1a34                  _ItemStr
                    0x1a5c                  _ElevenMthStr
                    0x1a62                  _NineMthStr
                    0x1a66                  _SixMthStr
                    0x1a6a                  _ThreeMthStr
                    0x1a6e                  _TestMthStr
                    0x1a7a                  _NineNumStr
                    0x1a82                  _SevenNumStr
                    0x1a8a                  _FineNumStr
                    0x1a92                  _ThreeNumStr
                    0x1a9a                  _OneNumStr
                    0x1aa2                  _TestNumberStr
                    0x1aae                  _Calibrate_Wet
                    0x1adc                  _Calibrate_Dry
                    0x1b0a                  _AdjustStr
                    0x1b16                  _CalPerStr
                    0x1b24                  _CalibrationPeriodStr
                    0x1b54                  _SixStr
                    0x1b58                  _FineStr
                    0x1b5c                  _FourStr
                    0x1b60                  _ThreeStr
                    0x1b64                  _TwoStr
                    0x1b68                  _OneStr
                    0x1b6c                  _BlowPressStr
                    0x1b7e                  _FineSecStr
                    0x1b82                  _FourFineSecStr
                    0x1b8a                  _FourSecStr
                    0x1b8e                  _ThreeFineSecStr
                    0x1b96                  _ThreeSecStr
                    0x1b9a                  _TwoFineSecStr
                    0x1ba2                  _BlowTimeStr
                    0x1bae                  _BlowSettingStr
                    0x1bb4                  _PowerOffStr
                    0x1bca                  _ScreenPasswordStr
                    0x1bd0                  _WrongPasswordStr
                    0x1bea                  _PasswordStr
                    0x1bf8                  _INPUTStr
                    0x1c02                  _NoPaper
                    0x1c18                  _Big20dStr
                    0x1c20                  _Big0Str
                    0x1c26                  _Equal0Str
                    0x1c2c                  _PaperNumStr
                    0x1c50                  _AutoPrintStr
                    0x1c68                  _PrintSettingStr
                    0x1c76                  _K2300StrA
                    0x1c80                  _K2250StrA
                    0x1c8a                  _K2200StrA
                    0x1c94                  _K2150StrA
                    0x1c9e                  _K2100StrA
                    0x1ca8                  _K2050StrA
                    0x1cb2                  _K2000StrA
                    0x1cbc                  _KSettingStr
                    0x1cc2                  _Celsius_Str
                    0x1cc6                  _ug_lStr
                    0x1cd2                  _mg_lStr
                    0x1cdc                  _mg_mg100Str
                    0x1ce4                  _mg_mlStr
                    0x1cf0                  _ug_100mlStr
                    0x1d04                  _g_100mlStr
                    0x1d14                  _mg_1000mlStr
                    0x1d22                  _mg_100Str
                    0x1d38                  _mg_100mlStr
                    0x1d4a                  _ThicknessStr
                    0x1d5a                  _TestFailStr
                    0x1d70                  _TestResultStr
                    0x1d84                  _TenMinStr
                    0x1d96                  _FineMinStr
                    0x1da6                  _TwoMinStr
                    0x1db8                  _OneMinStr
                    0x1dca                  _abcStr
                    0x1dd0                  _ABCStr
                    0x1dd6                  _CheckScreenStr
                    0x1de4                  _button_AutooffStr
                    0x1df0                  _AutooffStr
                    0x1e16                  _NumberStr
                    0x1e26                  _TestModestr
                    0x1e32                  _DateStr
                    0x1e3c                  _TimeStr
                    0x1e48                  _LatitudeStr
                    0x1e56                  _LongitudeStr
                    0x1e66                  _GPSStr
                    0x1e7c                  _SettingStr
                    0x1e90                  _RecordBKStr
                    0x1ed6                  _RecordStr
                    0x1f1e                  _NoStr
                    0x1f26                  _YesStr
                    0x1f2c                  _Yes_NoStr
                    0x1f3a                  _ResetStr
                    0x1f46                  _DeleteStr
                    0x1f56                  _MasterStr
                    0x1f66                  _AgentStr
                    0x1f74                  _BlowTimePressStr
                    0x1f80                  _PrintStr
                    0x1f8e                  _MarkvaluStr
                    0x1fa0                  _MarktemStr
                    0x1fb8                  _MarkconsStr
                    0x1fcc                  _DemarcateStr
                    0x1fd6                  _DemarWendStr
                    0x1fdc                  _ManualStr
                    0x1ff0                  _UnitsStr
                    0x1ff6                  _Noblowstr
                    0x200c                  _RefuseStr
                    0x2018                  _RepeatStr
                    0x2026                  _PassivityStr
                    0x2040                  _BlowStr
                    0x204e                  _SetDateTimeStr
                    0x207a                  _ExitStr
                    0x208c                  _RightArrowStr
                    0x2090                  _LeftArrowStr
                    0x22e8                  _pEbzyq
                    0x22ea                  _DisplayUnitStr
                    0x22fe                  _Tem_Detect
                    0x2300                  _ADLIST
                    0x2301                  _DryorWet
                    0x2302                  _Setpasswordposition
                    0x2304                  _pSld2
                    0x2306                  _pSld1
                    0x2308                  _Settingposition
                    0x230a                  _TTTemp1
                    0x230c                  _TTTemp0
                    0x230e                  _EETemp1
                    0x2310                  _EETemp0
                    0x2312                  _done
                    0x2314                  _pWin
                    0x2316                  _PST
                    0x2318                  _pbutton
                    0x231a                  _pbtn
                    0x231c                  _BatteryValue
                    0x231e                  _Valnum
                    0x2320                  _dif
                    0x2322                  _user_title
                    0x23c2                  _Record_Over_Flag
                    0x23c4                  _Marktimes
                    0x23c6                  _wordval
                    0x23c8                  _sys_datetime
                    0x23ce                  _Marktemporary
                    0x23d0                  _Mark_adc
                    0x23d2                  _Demarcate_adc
                    0x23d4                  _Demarcate_tem
                    0x23d6                  _epPress
                    0x23d8                  _initialpress
                    0x23da                  _Temp_adc
                    0x23dc                  _PasswordBuffer
                    0x23ea                  _dateTimeStr
                    0x241e                  _DateItemID
                    0x2420                  _pListSaved
                    0x2422                  _pDwnBottom
                    0x2424                  _pDwnRight
                    0x2426                  _pDwnTop
                    0x2428                  _pDwnLeft
                    0x242a                  _y
                    0x242c                  _x
                    0x242e                  _pSlider
                    0x2430                  _pProgressBar
                    0x2432                  _pGenObj
                    0x2434                  _blackScheme
                    0x2436                  _timemainScheme
                    0x2438                  _mainScheme
                    0x243a                  _yellowScheme
                    0x243c                  _greenScheme
                    0x243e                  _redScheme
                    0x2440                  _failScheme
                    0x2442                  _navScheme
                    0x2444                  _meterScheme
                    0x2446                  _timeScheme
                    0x2448                  _alt5Scheme
                    0x244a                  _alt4Scheme
                    0x244c                  _alt3Scheme
                    0x244e                  _alt2Scheme
                    0x2450                  _altScheme
                    0x2452                  _ToSendDataBuffer
                    0x2492                  _ReceivedDataBuffer
                    0x24d2                  _stringPrinted
                    0x24d4                  _i_chk_paper
                    0x24d6                  _Calibrate_Value
                    0x24f2                  _timeSet
                    0x24f9                  _softSec
                    0x24fa                  _softMin
                    0x24fc                  _softMS
                    0x24fe                  _I2C_COUNTER
                    0x2500                  _usbcount
                    0x2501                  _usbcmd
                    0x2502                  _i2busy
                    0x2503                  _I2C_ERROR
                    0x2504                  _jhm98
                    0x2506                  _USB_sys_clk
                    0x2508                  _sys_clk
                    0x250a                  _old_date
                    0x2510                  _sys_date
                    0x2516                  _gps_date
                    0x251c                  _eeset
                    0x2580                  _latitude
                    0x2588                  _longitude
                    0x2590                  _satellite_cnt
                    0x2591                  _satellite
                    0x2592                  _t4len
                    0x2594                  _uart4_rtimer
                    0x2596                  _tx4_ptrend
                    0x2598                  _tx4_ptr
                    0x259a                  _tx4_buff
                    0x25a4                  _rx4_ptr
                    0x25a6                  _rx4_buff
                    0x279a                  _TIMER_BASE
                    0x279c                  _BEEP_TIME
                    0x27a0                  _Printbuff
                    0x28a0                  _rx1_ptr
                    0x28a2                  _rx1_buff
                    0x29a2                  _t1len
                    0x29a4                  _uart1_rtimer
                    0x29a6                  _tx1_ptrend
                    0x29a8                  _tx1_ptr
                    0x29aa                  _tx1_buff
                    0x2aa9                  _PrintDataBuff
                    0x2d02                  _Ad_Result
                    0x2d04                  _Decade
                    0x2d2c                  _ticknum
                    0x2d2e                  _sum
                    0x2d32                  _a_flag
                    0x2d34                  _in
                    0x2d36                  _Temsign_flag
                    0x2d38                  _T2
                    0x2d3a                  _T1
                    0x2d3c                  _T0
                    0x2d3e                  _T
                    0x2d40                  _i
                    0x2d42                  _j
                    0x2d44                  _initial_value
                    0x2d46                  _Markvalue
                    0x2d64                  _MarkDensity
                    0x2d66                  _max_num
                    0x2d68                  _SampleCount
                    0x2d6a                  _a
                    0x2d6c                  _Temp3
                    0x2d6e                  _Temp2
                    0x2d70                  _Temp
                    0x2d72                  _press
                    0x2d74                  _flag
                    0x2d76                  _Test_Result
                    0x2d82                  _p_n
                    0x2d84                  _Datanum
                    0x2d86                  _Sprinnum
                    0x2d88                  _endprint
                    0x2d8a                  _SPrint
                    0x2d8c                  _TestRecord
                    0x2dcc                  _textbuffer
                    0x2e00                  _BDT
                    0x2e20                  _FlagTouchBit
                    0x2e22                  _Screenstr
                    0x2e3a                  _Touchstr
                    0x2e52                  _PenStatus
                    0x2e54                  _calibration
                    0x2e55                  _debounce_counter
                    0x2e56                  _adcPot
                    0x2e58                  _adcY
                    0x2e5a                  _adcX
                    0x2e5c                  __calYMax
                    0x2e5e                  __calYMin
                    0x2e60                  __calXMax
                    0x2e62                  __calXMin
                    0x2e68                  _test_result
                    0x2e6a                  _calculate_Temp
                    0x2e6e                  _peak_got
                    0x2e70                  _peak_compare_time
                    0x2e72                  _peak_value
                    0x2e74                  _sample_stop_value
                    0x2e76                  _peak_sample_Count
                    0x2e78                  _after_peak_count
                    0x2e7a                  _nflag
                    0x2e7b                  _MarkTem
                    0x2e7c                  _Hi
                    0x2e7d                  _Lw
                    0x2e7e                  _cons_t
                    0x2e80                  _nAdc
                    0x2e82                  _MarkAdc
                    0x2e84                  _suoitn2
                    0x2e86                  _pp4
                    0x2e88                  _pp3
                    0x2e8a                  _pp2
                    0x2e8c                  _pp1
                    0x2e8e                  _befpeak_count
                    0x2e92                  _sum_cons
                    0x2e96                  _temp_sum
                    0x2e9a                  _Kt
                    0x2e9c                  _Cons
                    0x2e9e                  _Tem_AD
                    0x2ea0                  _AD_press
                    0x2ea2                  _charge_flag
                    0x2ea4                  _t
                    0x2ea6                  _pppp
                    0x2ea8                  _ppp
                    0x2eaa                  _pulseCounter
                    0x2eac                  _ok_pp
                    0x2eae                  _hid_report_in
                    0x2eb1                  _hid_report_out
                    0x2eb4                  _CtrlTrfData
                    0x2ebc                  _SetupPkt
                    0x2ec4                  _USBInData
                    0x2ec6                  _USBInMaxPacketSize
                    0x2ec8                  _BothEP0OutUOWNsSet
                    0x2eca                  _USTATcopy
                    0x2ecc                  _pDst
                    0x2ece                  _controlTransferState
                    0x2ecf                  _shortPacketStatus
                    0x2ed0                  _pBDTEntryOut
                    0x2ed4                  _pBDTEntryEP0OutNext
                    0x2ed6                  _pBDTEntryEP0OutCurrent
                    0x2ed8                  _USBAlternateInterface
                    0x2eda                  _pBDTEntryIn
                    0x2ede                  _outPipes
                    0x2ee5                  _USBActiveConfiguration
                    0x2ee6                  _USBDeviceState
                    0x2ee8                  _RemoteWakeup
                    0x2eea                  _inPipes
                    0x2ef0                  _UARTFLAG
                    0x2ef2                  _sLatitude
                    0x2f0e                  _sLongitude
                    0x2f2c                  _dval
                    0x2f60                  __fontHeight
                    0x2f62                  __fontLastChar
                    0x2f64                  __fontFirstChar
                    0x2f66                  __font
                    0x2f68                  __cursorY
                    0x2f6a                  __cursorX
                    0x2f6c                  __lineThickness
                    0x2f6e                  __lineType
                    0x2f70                  _MATRIXstr
                    0x2f8c                  __calDivider
                    0x2f8e                  __calFn
                    0x2f90                  __calEn
                    0x2f92                  __calDn
                    0x2f94                  __calCn
                    0x2f96                  __calBn
                    0x2f98                  __calAn
                    0x2f9a                  _p
                    0x2fa1                  __date_str
                    0x2fb1                  __time_str
                    0x2fc2                  _ACK
                    0x2fc3                  _TimeTemp
                    0x2fca                  _save_delayt
                    0x2fcc                  __rtcc_flag
                    0x2fce                  __time_chk
                    0x2fd6                  __time
                    0x2fe4                  __rpnlEmbossSize
                    0x2fe6                  __rpnlEmbossDkColor
                    0x2fe8                  __rpnlEmbossLtColor
                    0x2fea                  __rpnlFaceColor
                    0x2fec                  __rpnlR
                    0x2fee                  __rpnlY2
                    0x2ff0                  __rpnlX2
                    0x2ff2                  __rpnlY1
                    0x2ff4                  __rpnlX1
                    0x300a                  _registed
                    0x300c                  __clipBottom
                    0x300e                  __clipRight
                    0x3010                  __clipTop
                    0x3012                  __clipLeft
                    0x3014                  __clipRgn
                    0x3016                  __color
                    0x302a                  __pRpnlBitmap
                    0x302c                  __pObjectFocused
                    0x302e                  __pDefaultGolScheme
                    0x3030                  __pGolObjects
                    0x3042                  _TestMiMaStr
                    0x305a                  __Size_block
                    0x305c                  __Aldata
                    0x3066                  __pListButtons
                    0x3068                  _active_protocol
                    0x3069                  _idle_rate
                    0x306c                  _Table_hz
                    0x306e                  ___curbrk

External Symbols in Data Memory (by name):

                    0x1dd0                  _ABCStr
                    0x2fc2                  _ACK
                    0x2300                  _ADLIST
                    0x2ea0                  _AD_press
                    0x2d02                  _Ad_Result
                    0x0f26                  _Adj_adc
                    0x0f24                  _Adj_tem
                    0x1b0a                  _AdjustStr
                    0x1f66                  _AgentStr
                    0x1716                  _Aircheckstr
                    0x16f4                  _Aircheckwinstr
                    0x1084                  _AlcTypeaddress
                    0x16ce                  _Alcoholdetected
                    0x1776                  _Attachpipe
                    0x1c50                  _AutoPrintStr
                    0x1df0                  _AutooffStr
                    0x10ec                  _AutooffSwitch
                    0x2e00                  _BDT
                    0x279c                  _BEEP_TIME
                    0x231c                  _BatteryValue
                    0x160a                  _Beginningstr
                    0x11da                  _Beyond25mgl
                    0x159a                  _BeyondZeroStr
                    0x1c20                  _Big0Str
                    0x1c18                  _Big20dStr
                    0x15d0                  _BlowDiscontinuedstr
                    0x1b6c                  _BlowPressStr
                    0x1bae                  _BlowSettingStr
                    0x2040                  _BlowStr
                    0x1f74                  _BlowTimePressStr
                    0x1ba2                  _BlowTimeStr
                    0x0c4a                  _BlueToothcount
                    0x1154                  _Bluetoothstr
                    0x0c74                  _BnumberStr
                    0x107e                  _BoolBatteryOFF
                    0x2ec8                  _BothEP0OutUOWNsSet
                    0x1082                  _CHK_PAPER_VAL
                    0x1b16                  _CalPerStr
                    0x13d8                  _CaliPeriod
                    0x1adc                  _Calibrate_Dry
                    0x106c                  _Calibrate_Flag
                    0x24d6                  _Calibrate_Value
                    0x1aae                  _Calibrate_Wet
                    0x1b24                  _CalibrationPeriodStr
                    0x13f4                  _CalibrationTest
                    0x1362                  _CalibrationTeststr
                    0x156c                  _Calibrationneed
                    0x14b2                  _Cancel
                    0x1cc2                  _Celsius_Str
                    0x1824                  _ChangeENStr
                    0x181c                  _ChangeRUStr
                    0x1dd6                  _CheckScreenStr
                    0x10ee                  _ChoicePrint
                    0x1644                  _Confirmpasswordstr
                    0x1844                  _ConnectToPCStr
                    0x2e9c                  _Cons
                    0x0c22                  _Countdown
                    0x2eb4                  _CtrlTrfData
                    0x17fa                  _DEL_EN
                    0x17f0                  _DEL_RU
                    0x0a2c                  _DTDoneText
                    0x0a2a                  _DTDownArrow
                    0x0a2e                  _DTMinusSym
                    0x0a32                  _DTPlusSym
                    0x0a36                  _DTSetText
                    0x0a28                  _DTUpArrow
                    0x2d84                  _Datanum
                    0x241e                  _DateItemID
                    0x1e32                  _DateStr
                    0x0ab6                  _DayItems
                    0x1832                  _DebugStr
                    0x2d04                  _Decade
                    0x14c4                  _DelectAllRecords
                    0x1f46                  _DeleteStr
                    0x1fd6                  _DemarWendStr
                    0x0c7c                  _Demarcate
                    0x1058                  _DemarcateAD
                    0x104a                  _DemarcateAD1
                    0x0fcc                  _DemarcateAD10
                    0x0fbe                  _DemarcateAD11
                    0x0fb0                  _DemarcateAD12
                    0x0fa2                  _DemarcateAD13
                    0x0f7c                  _DemarcateAD14
                    0x0f6e                  _DemarcateAD15
                    0x0f60                  _DemarcateAD16
                    0x0f52                  _DemarcateAD17
                    0x0f44                  _DemarcateAD18
                    0x0f36                  _DemarcateAD19
                    0x103c                  _DemarcateAD2
                    0x0f28                  _DemarcateAD20
                    0x102e                  _DemarcateAD3
                    0x1020                  _DemarcateAD4
                    0x1012                  _DemarcateAD5
                    0x1004                  _DemarcateAD6
                    0x0ff6                  _DemarcateAD7
                    0x0fe8                  _DemarcateAD8
                    0x0fda                  _DemarcateAD9
                    0x1fcc                  _DemarcateStr
                    0x23d2                  _Demarcate_adc
                    0x23d4                  _Demarcate_tem
                    0x182c                  _DemarcateshowStr
                    0x1628                  _Discontinuedstr
                    0x22ea                  _DisplayUnitStr
                    0x10ae                  _DisplaydateTimeStr
                    0x133c                  _DryCalibrationTest
                    0x1440                  _DryGasstr
                    0x1418                  _Drycheck
                    0x0c60                  _Drygas_D
                    0x0c6a                  _DrygasadustStr
                    0x2301                  _DryorWet
                    0x142e                  _Dryprodure
                    0x1168                  _EDITMarkstr
                    0x169e                  _EEPROMEDIT
                    0x2310                  _EETemp0
                    0x230e                  _EETemp1
                    0x1a5c                  _ElevenMthStr
                    0x15fe                  _Endstr
                    0x1676                  _EnterPasswordStr
                    0x1c26                  _Equal0Str
                    0x207a                  _ExitStr
                    0x1d96                  _FineMinStr
                    0x1a8a                  _FineNumStr
                    0x1b7e                  _FineSecStr
                    0x1b58                  _FineStr
                    0x1070                  _FirstIn
                    0x2e20                  _FlagTouchBit
                    0x0cd0                  _Flashbuff
                    0x1b82                  _FourFineSecStr
                    0x1b8a                  _FourSecStr
                    0x1b5c                  _FourStr
                    0x12d6                  _Fri
                    0x1e66                  _GPSStr
                    0x125a                  _G_Print
                    0x2e7c                  _Hi
                    0x24fe                  _I2C_COUNTER
                    0x2503                  _I2C_ERROR
                    0x114a                  _IDStr
                    0x1bf8                  _INPUTStr
                    0x1a0c                  _Item0Str
                    0x19e4                  _Item1Str
                    0x19bc                  _Item2Str
                    0x1994                  _Item3Str
                    0x196c                  _Item4Str
                    0x1944                  _Item5Str
                    0x191c                  _Item6Str
                    0x18f4                  _Item7Str
                    0x18cc                  _Item8Str
                    0x18a4                  _Item9Str
                    0x106a                  _ItemID
                    0x1a34                  _ItemStr
                    0x1618                  _Jumpstr
                    0x0c4e                  _Jumptox
                    0x1cb2                  _K2000StrA
                    0x1ca8                  _K2050StrA
                    0x1c9e                  _K2100StrA
                    0x1c94                  _K2150StrA
                    0x1c8a                  _K2200StrA
                    0x1c80                  _K2250StrA
                    0x1c76                  _K2300StrA
                    0x08d0                  _KEYPADRUSSIAN
                    0x1cbc                  _KSettingStr
                    0x2e9a                  _Kt
                    0x1e48                  _LatitudeStr
                    0x2090                  _LeftArrowStr
                    0x158c                  _LockStr
                    0x1e56                  _LongitudeStr
                    0x2e7d                  _Lw
                    0x2f70                  _MATRIXstr
                    0x1086                  _MAXCHAROld
                    0x1fdc                  _ManualStr
                    0x0eee                  _Mark1Str
                    0x0ee8                  _Mark2Str
                    0x0ee2                  _Mark3Str
                    0x0edc                  _Mark4Str
                    0x0f8a                  _MarkAD2
                    0x2e82                  _MarkAdc
                    0x2d64                  _MarkDensity
                    0x2e7b                  _MarkTem
                    0x0c7e                  _MarkTemp
                    0x23d0                  _Mark_adc
                    0x1fb8                  _MarkconsStr
                    0x0f98                  _Marktem
                    0x1fa0                  _MarktemStr
                    0x23ce                  _Marktemporary
                    0x23c4                  _Marktimes
                    0x1f8e                  _MarkvaluStr
                    0x2d46                  _Markvalue
                    0x1074                  _Masklevel
                    0x1f56                  _MasterStr
                    0x12f6                  _Mon
                    0x0b70                  _MonthItems
                    0x128e                  _Nextinspection
                    0x1a62                  _NineMthStr
                    0x1a7a                  _NineNumStr
                    0x15a4                  _NoAlocholstr
                    0x1c02                  _NoPaper
                    0x1f1e                  _NoStr
                    0x1ff6                  _Noblowstr
                    0x14ea                  _NotmatchStr
                    0x17a8                  _NumStored
                    0x1e16                  _NumberStr
                    0x1db8                  _OneMinStr
                    0x1a9a                  _OneNumStr
                    0x1b68                  _OneStr
                    0x1088                  _OperatorNameTempStr
                    0x0c7a                  _PDset
                    0x1468                  _PROCCESING
                    0x1480                  _PROCCESINGwait
                    0x2316                  _PST
                    0x1c2c                  _PaperNumStr
                    0x2026                  _PassivityStr
                    0x23dc                  _PasswordBuffer
                    0x1528                  _PasswordSettingStr
                    0x1bea                  _PasswordStr
                    0x0c4c                  _PeakScreen
                    0x2e52                  _PenStatus
                    0x1236                  _PeriodsText
                    0x1214                  _PeriodsText2
                    0x11e8                  _PeriodsText3
                    0x1874                  _PlseConnectToPCStr
                    0x1566                  _Pointr
                    0x1bb4                  _PowerOffStr
                    0x17ca                  _PreCalDate
                    0x10fa                  _PrescreenState
                    0x10f0                  _Pressflag
                    0x10f2                  _PrintCount
                    0x2aa9                  _PrintDataBuff
                    0x10f1                  _PrintSec
                    0x1c68                  _PrintSettingStr
                    0x1f80                  _PrintStr
                    0x27a0                  _Printbuff
                    0x2492                  _ReceivedDataBuffer
                    0x1e90                  _RecordBKStr
                    0x1ed6                  _RecordStr
                    0x23c2                  _Record_Over_Flag
                    0x200c                  _RefuseStr
                    0x2ee8                  _RemoteWakeup
                    0x2018                  _RepeatStr
                    0x1f3a                  _ResetStr
                    0x208c                  _RightArrowStr
                    0x1810                  _SPACE_EN
                    0x1802                  _SPACE_RU
                    0x2d8a                  _SPrint
                    0x1068                  _ST_IRstatus
                    0x2d68                  _SampleCount
                    0x12ce                  _Sat
                    0x1bca                  _ScreenPasswordStr
                    0x2e22                  _Screenstr
                    0x1134                  _Serialnumber
                    0x204e                  _SetDateTimeStr
                    0x2302                  _Setpasswordposition
                    0x154a                  _Setpasswordstr
                    0x1e7c                  _SettingStr
                    0x2308                  _Settingposition
                    0x1508                  _SettingsuccessStr
                    0x2ebc                  _SetupPkt
                    0x1a82                  _SevenNumStr
                    0x1150                  _Sighstr
                    0x1a66                  _SixMthStr
                    0x1b54                  _SixStr
                    0x0c08                  _SoftwareID
                    0x15f4                  _SoundStr
                    0x2d86                  _Sprinnum
                    0x1738                  _Start
                    0x1744                  _Start_test
                    0x12c6                  _Sun
                    0x2d3e                  _T
                    0x2d3c                  _T0
                    0x2d3a                  _T1
                    0x0f1e                  _T1Str
                    0x2d38                  _T2
                    0x0f18                  _T2Str
                    0x0f12                  _T3Str
                    0x0f0c                  _T4Str
                    0x0f06                  _T5Str
                    0x0f00                  _T6Str
                    0x0efa                  _T7Str
                    0x0ef4                  _T8Str
                    0x279a                  _TIMER_BASE
                    0x230c                  _TTTemp0
                    0x230a                  _TTTemp1
                    0x306c                  _Table_hz
                    0x2e9e                  _Tem_AD
                    0x22fe                  _Tem_Detect
                    0x2d70                  _Temp
                    0x2d6e                  _Temp2
                    0x2d6c                  _Temp3
                    0x23da                  _Temp_adc
                    0x0caa                  _TempbuffStr
                    0x11a6                  _TemperatureExtremehigh
                    0x1174                  _TemperatureExtremelow
                    0x2d36                  _Temsign_flag
                    0x1d84                  _TenMinStr
                    0x0bb8                  _TenUnits
                    0x1d5a                  _TestFailStr
                    0x3042                  _TestMiMaStr
                    0x1075                  _TestMode
                    0x1e26                  _TestModestr
                    0x1a6e                  _TestMthStr
                    0x1aa2                  _TestNumberStr
                    0x2d8c                  _TestRecord
                    0x1d70                  _TestResultStr
                    0x2d76                  _Test_Result
                    0x1d4a                  _ThicknessStr
                    0x1b8e                  _ThreeFineSecStr
                    0x1a6a                  _ThreeMthStr
                    0x1a92                  _ThreeNumStr
                    0x1b96                  _ThreeSecStr
                    0x1b60                  _ThreeStr
                    0x12de                  _Thu
                    0x1e3c                  _TimeStr
                    0x2fc3                  _TimeTemp
                    0x2452                  _ToSendDataBuffer
                    0x14a6                  _Totalstr
                    0x2e3a                  _Touchstr
                    0x110a                  _TradeMark_Print
                    0x1118                  _TradeMark_Title
                    0x12ee                  _Tue
                    0x1b9a                  _TwoFineSecStr
                    0x1da6                  _TwoMinStr
                    0x1b64                  _TwoStr
                    0x2ef0                  _UARTFLAG
                    0x2ee5                  _USBActiveConfiguration
                    0x2ed8                  _USBAlternateInterface
                    0x2ee6                  _USBDeviceState
                    0x2ec4                  _USBInData
                    0x1106                  _USBInHandle
                    0x2ec6                  _USBInMaxPacketSize
                    0x1108                  _USBOutHandle
                    0x2506                  _USB_sys_clk
                    0x2eca                  _USTATcopy
                    0x1072                  _Unit_Select
                    0x1ff0                  _UnitsStr
                    0x0c72                  _UnumberStr
                    0x15ec                  _UpArrowStr
                    0x231e                  _Valnum
                    0x1126                  _Version
                    0x138a                  _W_Gaschoosestr
                    0x1838                  _WaitStr
                    0x12e6                  _Wed
                    0x1316                  _WetCalibrationTest
                    0x1454                  _WetGasstr
                    0x0c5f                  _Wetgas_d
                    0x0c62                  _WetgasadustStr
                    0x1bd0                  _WrongPasswordStr
                    0x0a38                  _YearItems
                    0x1f26                  _YesStr
                    0x1f2c                  _Yes_NoStr
                    0x15a0                  _ZeroStr
                    0x305c                  __Aldata
                    0x305a                  __Size_block
                    0x306e                  ___curbrk
                    0x2f98                  __calAn
                    0x2f96                  __calBn
                    0x2f94                  __calCn
                    0x2f8c                  __calDivider
                    0x2f92                  __calDn
                    0x2f90                  __calEn
                    0x2f8e                  __calFn
                    0x2e60                  __calXMax
                    0x2e62                  __calXMin
                    0x2e5c                  __calYMax
                    0x2e5e                  __calYMin
                    0x300c                  __clipBottom
                    0x3012                  __clipLeft
                    0x3014                  __clipRgn
                    0x300e                  __clipRight
                    0x3010                  __clipTop
                    0x3016                  __color
                    0x2f6a                  __cursorX
                    0x2f68                  __cursorY
                    0x2fa1                  __date_str
                    0x2f66                  __font
                    0x2f64                  __fontFirstChar
                    0x2f60                  __fontHeight
                    0x2f62                  __fontLastChar
                    0x2f6c                  __lineThickness
                    0x2f6e                  __lineType
                    0x302e                  __pDefaultGolScheme
                    0x3030                  __pGolObjects
                    0x3066                  __pListButtons
                    0x302c                  __pObjectFocused
                    0x302a                  __pRpnlBitmap
                    0x2fe6                  __rpnlEmbossDkColor
                    0x2fe8                  __rpnlEmbossLtColor
                    0x2fe4                  __rpnlEmbossSize
                    0x2fea                  __rpnlFaceColor
                    0x2fec                  __rpnlR
                    0x2ff4                  __rpnlX1
                    0x2ff0                  __rpnlX2
                    0x2ff2                  __rpnlY1
                    0x2fee                  __rpnlY2
                    0x2fcc                  __rtcc_flag
                    0x2fd6                  __time
                    0x2fce                  __time_chk
                    0x2fb1                  __time_str
                    0x2d6a                  _a
                    0x2d32                  _a_flag
                    0x1dca                  _abcStr
                    0x3068                  _active_protocol
                    0x2e56                  _adcPot
                    0x2e5a                  _adcX
                    0x2e58                  _adcY
                    0x2e78                  _after_peak_count
                    0x106e                  _alarmON
                    0x1268                  _alcoholdetect
                    0x1066                  _alocholdetecet
                    0x244e                  _alt2Scheme
                    0x244c                  _alt3Scheme
                    0x244a                  _alt4Scheme
                    0x2448                  _alt5Scheme
                    0x2450                  _altScheme
                    0x2e8e                  _befpeak_count
                    0x2434                  _blackScheme
                    0x1104                  _blinkStatusValid
                    0x1de4                  _button_AutooffStr
                    0x13ca                  _caladjustBTNstr
                    0x13b2                  _caladjustWINstr
                    0x2e6a                  _calculate_Temp
                    0x2e54                  _calibration
                    0x2ea2                  _charge_flag
                    0x2e7e                  _cons_t
                    0x0c84                  _consbuffStr
                    0x2ece                  _controlTransferState
                    0x23ea                  _dateTimeStr
                    0x2e55                  _debounce_counter
                    0x2320                  _dif
                    0x2312                  _done
                    0x2f2c                  _dval
                    0x251c                  _eeset
                    0x2d88                  _endprint
                    0x23d6                  _epPress
                    0x2440                  _failScheme
                    0x2d74                  _flag
                    0x1d04                  _g_100mlStr
                    0x107c                  _g_backlight_time
                    0x1076                  _g_blow_time
                    0x1078                  _g_rtc_counter
                    0x107a                  _g_standby_time
                    0x2516                  _gps_date
                    0x243c                  _greenScheme
                    0x2eae                  _hid_report_in
                    0x2eb1                  _hid_report_out
                    0x2d40                  _i
                    0x2502                  _i2busy
                    0x24d4                  _i_chk_paper
                    0x3069                  _idle_rate
                    0x2d34                  _in
                    0x2eea                  _inPipes
                    0x2d44                  _initial_value
                    0x23d8                  _initialpress
                    0x12b6                  _inspection
                    0x2d42                  _j
                    0x2504                  _jhm98
                    0x2580                  _latitude
                    0x2588                  _longitude
                    0x2438                  _mainScheme
                    0x2d66                  _max_num
                    0x2444                  _meterScheme
                    0x1d14                  _mg_1000mlStr
                    0x1d22                  _mg_100Str
                    0x1d38                  _mg_100mlStr
                    0x1cd2                  _mg_lStr
                    0x1cdc                  _mg_mg100Str
                    0x1ce4                  _mg_mlStr
                    0x2e80                  _nAdc
                    0x2442                  _navScheme
                    0x2e7a                  _nflag
                    0x10f4                  _offcount
                    0x2eac                  _ok_pp
                    0x250a                  _old_date
                    0x2ede                  _outPipes
                    0x2f9a                  _p
                    0x2ed6                  _pBDTEntryEP0OutCurrent
                    0x2ed4                  _pBDTEntryEP0OutNext
                    0x2eda                  _pBDTEntryIn
                    0x2ed0                  _pBDTEntryOut
                    0x2ecc                  _pDst
                    0x2422                  _pDwnBottom
                    0x2428                  _pDwnLeft
                    0x2424                  _pDwnRight
                    0x2426                  _pDwnTop
                    0x22e8                  _pEbzyq
                    0x2432                  _pGenObj
                    0x2420                  _pListSaved
                    0x2430                  _pProgressBar
                    0x2306                  _pSld1
                    0x2304                  _pSld2
                    0x242e                  _pSlider
                    0x0868                  _pTempABC
                    0x08e8                  _pTempRUSSIAN
                    0x09f8                  _pTempXchar
                    0x0800                  _pTempabc
                    0x0974                  _pTemprussian
                    0x2314                  _pWin
                    0x2d82                  _p_n
                    0x231a                  _pbtn
                    0x2318                  _pbutton
                    0x2e70                  _peak_compare_time
                    0x2e6e                  _peak_got
                    0x2e76                  _peak_sample_Count
                    0x2e72                  _peak_value
                    0x2e8c                  _pp1
                    0x2e8a                  _pp2
                    0x2e88                  _pp3
                    0x2e86                  _pp4
                    0x2ea8                  _ppp
                    0x2ea6                  _pppp
                    0x2d72                  _press
                    0x10ea                  _prevState
                    0x1306                  _print_add1
                    0x12fe                  _print_add2
                    0x10fe                  _ptrBigArialFont
                    0x1102                  _ptrLargeAsianFont
                    0x1100                  _ptrSmallAsianFont
                    0x2eaa                  _pulseCounter
                    0x16b4                  _record_refuse
                    0x243e                  _redScheme
                    0x300a                  _registed
                    0x28a2                  _rx1_buff
                    0x28a0                  _rx1_ptr
                    0x25a6                  _rx4_buff
                    0x25a4                  _rx4_ptr
                    0x2ef2                  _sLatitude
                    0x2f0e                  _sLongitude
                    0x2e74                  _sample_stop_value
                    0x2591                  _satellite
                    0x2590                  _satellite_cnt
                    0x2fca                  _save_delayt
                    0x0c5e                  _savetemp
                    0x10fc                  _screenState
                    0x0c82                  _serialnumber
                    0x0c80                  _serialnumberRecord
                    0x0ed0                  _serialnumberStr
                    0x2ecf                  _shortPacketStatus
                    0x24fc                  _softMS
                    0x24fa                  _softMin
                    0x24f9                  _softSec
                    0x1080                  _status_pc
                    0x24d2                  _stringPrinted
                    0x2d2e                  _sum
                    0x2e92                  _sum_cons
                    0x2e84                  _suoitn2
                    0x2508                  _sys_clk
                    0x2510                  _sys_date
                    0x23c8                  _sys_datetime
                    0x2ea4                  _t
                    0x29a2                  _t1len
                    0x2592                  _t4len
                    0x2e96                  _temp_sum
                    0x2e68                  _test_result
                    0x2dcc                  _textbuffer
                    0x10f6                  _tick
                    0x2d2c                  _ticknum
                    0x2446                  _timeScheme
                    0x24f2                  _timeSet
                    0x2436                  _timemainScheme
                    0x16b8                  _touch100
                    0x29aa                  _tx1_buff
                    0x29a8                  _tx1_ptr
                    0x29a6                  _tx1_ptrend
                    0x259a                  _tx4_buff
                    0x2598                  _tx4_ptr
                    0x2596                  _tx4_ptrend
                    0x29a4                  _uart1_rtimer
                    0x2594                  _uart4_rtimer
                    0x1cf0                  _ug_100mlStr
                    0x1cc6                  _ug_lStr
                    0x0c78                  _update1
                    0x0c76                  _update2
                    0x2501                  _usbcmd
                    0x2500                  _usbcount
                    0x2322                  _user_title
                    0x23c6                  _wordval
                    0x242c                  _x
                    0x242a                  _y
                    0x243a                  _yellowScheme

External Symbols in Program Memory (by address):

                  0x001404                  __resetPRI
                  0x001426                  __psv_init
                  0x001436                  __data_init_standard
                  0x001436                  __data_init
                  0x001494                  ___mulp32eds3
                  0x001494                  ___mulsi3
                  0x001494                  ___mulp32peds3
                  0x0014a0                  _malloc
                  0x001544                  _free
                  0x0015ac                  _memset
                  0x0015ba                  _strstr
                  0x0015e2                  __Getmem
                  0x0015f0                  _strchr
                  0x00164c                  ___udivsi3
                  0x00166c                  ___divsi3
                  0x00168a                  _delay7843
                  0x001696                  _ADS7843_start
                  0x0016ae                  _InitializeINT2
                  0x0016c6                  _inti_time3
                  0x0016dc                  __INT2Interrupt
                  0x0016f4                  _TouchGetX
                  0x001722                  _TouchGetY
                  0x001756                  _TouchGetMsg
                  0x0018aa                  _TouchStoreCalibration
                  0x00198e                  _TouchStoreCalibrationDefault
                  0x0019ae                  _TouchLoadCalibration
                  0x001af6                  _TouchLoadCalibrationDefault
                  0x001b0e                  _setCalibrationMatrix
                  0x001d7c                  _TouchGetCalPoints
                  0x001e64                  _TouchCalibration
                  0x0024b4                  _getDisplayPoint
                  0x002536                  _WriteCharToADS7843
                  0x002566                  _ReadFromCharFromADS7843
                  0x0025a0                  _InitializeADS7843
                  0x002632                  __T3Interrupt
                  0x002800                  _ISRTable
                  0x002820                  _BCD_to_ASCII
                  0x002858                  _ASCII_to_BCD
                  0x00288c                  _ASCII_to_BCD_Eng
                  0x00290a                  _Byte_to_PRN_TextBuffer
                  0x002918                  _initialBlueTooth
                  0x002924                  _initialUART1
                  0x002964                  __U1TXInterrupt
                  0x002998                  __U1RXInterrupt
                  0x0029e2                  _UART1transtart
                  0x0029fc                  _ChangeBRG
                  0x002a32                  _initPrint
                  0x002a48                  _StartPrint
                  0x002a7e                  _Off_Printer
                  0x002a98                  _Search_Table
                  0x002ad4                  _Search_zero
                  0x002aec                  _Print_Table_Text_Alcovisor_Mercury
                  0x002b44                  _Print_Table_Text_YIQIHAO
                  0x002bb4                  _Print_Table_Text_JILUHAO
                  0x002c2e                  _Print_Table_Text_SHIJIAN
                  0x002cba                  _Print_Table_Text_GUILING
                  0x002e58                  _Last_Calibration_Date
                  0x002ea4                  _Print_Table_Text_RefuseTest
                  0x002f0e                  _Print_Table_Text_Discontiued
                  0x002f78                  _Print_Table_Text_TestModePassive
                  0x002fac                  _Print_Table_Text_TestModeManual
                  0x002ff8                  _Print_Table_Text_JIUJINGHANLIANG
                  0x00301c                  _Print_UnderLine
                  0x00306a                  _Print_Table_Text_GPS
                  0x003176                  _Print_Table_Text_temperature
                  0x0031f6                  _Print_Table_Text_SignatureCheck
                  0x003244                  _Print_Table_Text_Signature
                  0x003292                  _Print_datareturn
                  0x0032a2                  _Printdata
                  0x0032e2                  _Print_ITEM
                  0x003378                  _Print_TestRecord
                  0x00347e                  _Print_Table_Text_RIQI
                  0x003558                  _Print_Last_Calibration_Date
                  0x00361e                  _Timeto_Calibration
                  0x003720                  _Print_Table_Text_NONGDU
                  0x003bd8                  _Print_Table_Text_Eng
                  0x003c76                  _Inputdata
                  0x003d72                  _L19239
                  0x005100                  _L23331
                  0x00648e                  _L13741
                  0x00781c                  _DelayMs
                  0x00782e                  _DeviceSelect
                  0x007832                  _DeviceDeselect
                  0x007836                  _DeviceSetCommand
                  0x00783a                  _DeviceSetData
                  0x00783e                  _DeviceWrite
                  0x007848                  _DeviceRead
                  0x007858                  _DeviceInit
                  0x00789a                  _SetAddress
                  0x0078fc                  _PutImage16BPP
                  0x0079ae                  _PutImage8BPP
                  0x007a8a                  _PutImage4BPP
                  0x007b74                  _PutImage1BPP
                  0x007c6c                  _PutImage
                  0x007cd8                  _ClearDevice
                  0x007d0c                  _Bar
                  0x007d88                  _PutPixel
                  0x007dd0                  _SetReg
                  0x007dea                  _ResetDevice
                  0x007f6a                  _Power_ON_OFF
                  0x007f6c                  _SideButtonsMsg
                  0x007fb6                  _USBSleepOnSuspend
                  0x007fea                  __DefaultInterrupt
                  0x008000                  _L24816
                  0x0091c2                  _BigArial
                  0x0091c6                  _L8835
                  0x00aed0                  _GOLFontDefault
                  0x00aed4                  _L6796
                  0x00c0a8                  _GOLMediumFont
                  0x00c0ac                  _L2700
                  0x00cdc4                  _GOLSmallFont
                  0x00cdc8                  _Table_kN
                  0x00ce49                  _Table_kT
                  0x00d034                  _Table_kVH
                  0x00d2dc                  _Table_ASCII0816
                  0x00dd3c                  _UART4p
                  0x00dd44                  _Blood
                  0x00dd54                  _Breath
                  0x00dd70                  _Cal
                  0x00dd7a                  _Engineer2
                  0x00dd88                  _Engineer1
                  0x00dd98                  _Airblank2
                  0x00ddb2                  _Airblank1
                  0x00ddc4                  _EditID_Title
                  0x00ddda                  _EditIDstr
                  0x00ddea                  _BluetoothMstr
                  0x00de0c                  _PrintMstr
                  0x00de2a                  _Nonestr
                  0x00de4a                  _Workstr
                  0x00de6c                  _Matchstr
                  0x00de80                  _no_bluetooth_button_RecordStr
                  0x00e3ee                  _USB_SD_Ptr
                  0x00e3f4                  _USB_CD_Ptr
                  0x00e3f6                  _hid_rpt01
                  0x00e412                  _sd002
                  0x00e440                  _sd001
                  0x00e474                  _sd000
                  0x00e478                  _configDescriptor1
                  0x00e4a2                  _device_dsc
                  0x00e4b4                  _bluetooth
                  0x00e4ba                  _printerbutton
                  0x00e4c0                  _ag3
                  0x00e4c6                  _gpslogo
                  0x00e4cc                  _RIGHT
                  0x00e4d2                  _LEFT
                  0x00e4d8                  _HOME
                  0x00e4de                  _arrowDown
                  0x00e4e4                  _arrowUp
                  0x00e4ea                  _Pictime
                  0x00e4f0                  _Picsetting
                  0x00e4f6                  _Picrecord
                  0x00e4fc                  _PicGPS
                  0x00e502                  _PC_copy
                  0x00e508                  _set2
                  0x00e50e                  _Test3
                  0x00e514                  _Test2
                  0x00e51a                  _Test1
                  0x00e55a                  _RES_GPGGA
                  0x00e562                  _RES_GPRMC
                  0x00e56a                  _dayd
                  0x00e58e                  _initialUART4
                  0x00e642                  _delay_ms
                  0x00e64a                  _initSPI2
                  0x00e682                  _SPI2_WAIT
                  0x00e69a                  _FLASH_RD
                  0x00e740                  _write_bufferstart
                  0x00e774                  _write_buffer
                  0x00e794                  _write_bufferend
                  0x00e7b8                  _AUTO_REWR
                  0x00e7fa                  _CopyChar
                  0x00e80a                  _CopyXCHARtoCHAR
                  0x00e81a                  _SaveAdjust
                  0x00e840                  _InitialSETTING
                  0x00e912                  _DefaultSETTING
                  0x00eba0                  _Markjudgement
                  0x00ec84                  _DisplayThickness
                  0x00ed94                  _GetThickness
                  0x00edf2                  _readrecord
                  0x00ee32                  _initimer1
                  0x00ee50                  _TickInit
                  0x00ee5e                  _StartScreen
                  0x00eefc                  _UserInit
                  0x00ef04                  _ProcessIO
                  0x00f0f0                  _USBCBSuspend
                  0x00f0f2                  _USBCBWakeFromSuspend
                  0x00f0f4                  _USBCB_SOF_Handler
                  0x00f0f6                  _USBCBErrorHandler
                  0x00f0f8                  _USBCBCheckOtherReq
                  0x00f0fc                  _USBCBStdSetDscHandler
                  0x00f0fe                  _USBCBInitEP
                  0x00f116                  _USBCBSendResume
                  0x00f12c                  _MsgAlcoholdetect
                  0x00f158                  _MsgAlcoholdetected
                  0x00f18c                  _MsgBlowPlease
                  0x00f1ca                  _MsgDatadeal
                  0x00f1cc                  _MsgDISCONTINUED
                  0x00f216                  _MsgSetting
                  0x00f284                  _MsgSoundControl
                  0x00f2c8                  _MsgDisplayMachineID
                  0x00f2fa                  _MsgSetBackLight
                  0x00f328                  _MsgToPC
                  0x00f340                  _MsgWait
                  0x00f344                  _MsgChoosegas
                  0x00f3b0                  _MsggasCal
                  0x00f3fe                  _MsgCalTestresult
                  0x00f43c                  _MsgPowerOFF
                  0x00f43e                  _MsgRefuse
                  0x00f480                  _MsgAgent
                  0x00f4ec                  _MsgMaster
                  0x00f578                  _MsgSetpassword
                  0x00f5c0                  _MsgOutcomeSetpassword
                  0x00f5f2                  _MsgYesNo
                  0x00f654                  _MsgChooseCal
                  0x00f68a                  _MsgCalLock
                  0x00f6ac                  _MsgBlueTooth
                  0x00f6f8                  _MsgBlowPress
                  0x00f794                  _MsgThickness
                  0x00f830                  _MsgRecord
                  0x00f904                  _SoundControlupdate
                  0x00f93e                  _CreatePage
                  0x00fa32                  _CreatePage0
                  0x00fa74                  _CreateYesNo
                  0x00faf6                  _CreateSetpassword
                  0x00fb36                  _CreateMaster
                  0x00fbe4                  _CreateAgent
                  0x00fc72                  _CreateRefuse
                  0x00fcb2                  _CreategasCal
                  0x00fd06                  _CreateChoosegas
                  0x00fd46                  _CreateDISCONTINUED
                  0x00fd86                  _CreateSetting
                  0x00fde8                  _ErrorTrap
                  0x00fe26                  _Createautuooff
                  0x00fe76                  _CreateEditeeprom
                  0x0100ce                  _CreateEditTest
                  0x010238                  _Msgcaladjust
                  0x0102d8                  _MsgPrintSetting
                  0x0103aa                  _CreateEditABC
                  0x0108d8                  _updateDateTimeEb
                  0x01097e                  _CreateUnitPDmenu
                  0x010a00                  _CreateDateTime
                  0x010c58                  _ShowUnitPullDownMeny
                  0x010d52                  _CreateSoundControl
                  0x010da4                  _ShowPullDownMenu
                  0x010e9e                  _RemovePullDownMenu
                  0x010ef6                  _MsgDateTime
                  0x010ffa                  _UpdateRTCCDates
                  0x011054                  _MsgUnitPDment
                  0x011176                  _MsgSetDate
                  0x01129c                  _CreateBlueTooth
                  0x011314                  _CreateOutcomeSetpassword
                  0x011338                  _CreateDemarcateshow
                  0x011458                  _CreateDebug2
                  0x011514                  _CreateDebug
                  0x0116c4                  _CreatePowerOff
                  0x0116e0                  _CreateWait
                  0x01172c                  _Createcaladjust
                  0x0117d6                  _CreateMark
                  0x0118ba                  _CreateCalTestresult
                  0x01191e                  _CreateDemarcate2
                  0x011a6c                  _CreateDemarcate
                  0x011b92                  _CreateCalLock
                  0x011bb2                  _CreateConnectToPC
                  0x011bce                  _CreateDatadeal
                  0x011bea                  _CreateDisplayMachineID
                  0x011c90                  _ResidentAlcoholdetected
                  0x011d0a                  _Aircheck
                  0x011d3a                  _CreateAlcoholdetect
                  0x011daa                  _CreateMain
                  0x012016                  _SaveReadItem
                  0x0120be                  _MsgResult
                  0x01222a                  _MsgMain
                  0x01235c                  _Check_Screen
                  0x012372                  _MsgMasterPassword
                  0x012470                  _MsgScreenPassword
                  0x012550                  _MsgPassword
                  0x01261a                  _MsgEditPassword
                  0x012782                  _MsgEditTest
                  0x012814                  _MsgEditMark
                  0x01298c                  _MsgEditID
                  0x012a72                  _MsgEditMarkValue
                  0x012b8a                  _MsgEditDemarcate
                  0x012d7e                  _MsgEditeeprom
                  0x012e9a                  _MsgEditInspectDate
                  0x012f6e                  _MsgEditABC
                  0x012f70                  _CopyTime
                  0x012ff4                  _DisplayTestResult
                  0x013068                  _CreateRecord
                  0x013420                  _updateJumptoxEb
                  0x013464                  _MsgJumptox
                  0x013598                  _CreateJumptox
                  0x013806                  _CreateBlowPlease
                  0x013860                  _CreateItem
                  0x013ac4                  _CreateChooseCal
                  0x013afe                  _CreatePrintSetting
                  0x013c42                  _CreateGPS
                  0x013ccc                  _Battery
                  0x013d24                  _ShowBatteryEmpty
                  0x013d34                  _ShowBattery
                  0x013fdc                  _CreateBlowPress
                  0x0140fc                  _CreateThickness
                  0x014208                  _CreateSetBackLight
                  0x014260                  _CreateUnits
                  0x014290                  _GetStatus
                  0x0142c8                  _CreateCalibrate
                  0x0143ac                  _MsgCalibrate
                  0x014404                  _MsgMark
                  0x0144b4                  _SaveItemByte
                  0x0145a6                  _MsgItemEditABC
                  0x014bb8                  _MsgItem
                  0x015070                  _flash_buffer
                  0x0150ce                  _solid_data
                  0x01512c                  _writerecord
                  0x015262                  _CreateResult
                  0x015384                  _GOLDrawCallback
                  0x016a42                  _testflash
                  0x016ad8                  _MsgDemarcate
                  0x016c06                  _MsgDemarcate2
                  0x016d36                  _GOLMsgCallback
                  0x017312                  _USER_USB_CALLBACK_EVENT_HANDLER
                  0x01732e                  _main
                  0x017766                  _L20872
                  0x018af4                  _L16058
                  0x019e82                  _L17774
                  0x01b210                  _L18421
                  0x01c59e                  _L13806
                  0x01d92c                  _L13960
                  0x01ff94                  __T2Interrupt
                  0x01ffc6                  _BeepInit
                  0x01ffec                  _delayus
                  0x01fffa                  _delayms
                  0x02000e                  _pumpinit
                  0x02001a                  _adcinit
                  0x020038                  _inti_time5
                  0x02004e                  _Get_char
                  0x0200a2                  _hex_to_char
                  0x0200aa                  _HexChartoChar
                  0x0200d0                  _HexChartoInt
                  0x0200fc                  _hex_bcd2
                  0x020142                  _inti_ads7822
                  0x02014a                  _adc_delay
                  0x020158                  _cons_calculate
                  0x020236                  _Data_Calculate4
                  0x0202d0                  _Hexshow
                  0x0202fc                  _ByteToInt
                  0x020304                  _Data_Calculate2
                  0x02032e                  _Data_Calculate3
                  0x020354                  _tem_interzone
                  0x020398                  _Data_Calculate1
                  0x0204f6                  _Cons_Aduj
                  0x020562                  _ADC
                  0x0206c8                  _Filter
                  0x02070c                  _Adc_Count
                  0x020770                  _Pump_action
                  0x0207f4                  _Temperature
                  0x02084a                  _prepare_and_Charge
                  0x02088c                  _caiyang
                  0x0209ce                  _Manual_Analyze
                  0x020bdc                  _press_test
                  0x020c10                  _ads7822
                  0x020c82                  __T5Interrupt
                  0x020d4e                  _L32236
                  0x0219d4                  _L594
                  0x02265a                  _L24912
                  0x0232e0                  _L18168
                  0x023f66                  _L10999
                  0x024bec                  __T4Interrupt
                  0x024c14                  _initI2
                  0x024c46                  _error_i2
                  0x024c54                  _I2C_start
                  0x024c92                  _I2cWriteA
                  0x024d62                  _I2cWrite
                  0x024d90                  _I2cRead
                  0x024e9c                  _b2h
                  0x024eaa                  _RTCRead
                  0x024f4c                  _RTCWrite
                  0x024ff8                  _RTCCProcessEvents
                  0x0251aa                  _RTCCUnlock
                  0x0251bc                  _RTCCSet
                  0x0251ca                  _RTCCInit
                  0x0251cc                  _RTCCSetBinSec
                  0x0251f6                  _RTCCSetBinMin
                  0x025220                  _RTCCSetBinHour
                  0x025246                  _RTCCCalculateWeekDay
                  0x025296                  _RTCCSetBinDay
                  0x0252e6                  _RTCCSetBinMonth
                  0x02530c                  _RTCCSetBinYear
                  0x025344                  _I2cInit
                  0x02534a                  _start
                  0x02536a                  _stop
                  0x02538a                  _check
                  0x0253a4                  _send
                  0x0253d8                  _recive
                  0x025404                  _ack
                  0x025418                  _nack
                  0x02542c                  _wrtoROM
                  0x02547c                  _I2cRtccWriteByte
                  0x0254be                  _SetRtccDefault
                  0x0254f0                  _I2CRtccReadByte
                  0x025534                  _USBDeviceInit
                  0x0255aa                  _USBWakeFromSuspend
                  0x0255bc                  _USBSuspend
                  0x0255cc                  _USBStallHandler
                  0x0255f2                  _USBCtrlTrfRxService
                  0x0256ac                  _USBPrepareForNextSetupTrf
                  0x0256e4                  _USBCtrlTrfOutHandler
                  0x02570e                  _USBCtrlTrfTxService
                  0x0257c6                  _USBCtrlEPServiceComplete
                  0x025880                  _USBCtrlTrfInHandler
                  0x0258d8                  _USBStdGetDscHandler
                  0x02599a                  _USBStdSetCfgHandler
                  0x0259da                  _USBStdGetStatusHandler
                  0x025a5e                  _USBStdFeatureReqHandler
                  0x025b02                  _USBCheckStdRequest
                  0x025b8c                  _USBCtrlTrfSetupHandler
                  0x025bbe                  _USBCtrlEPService
                  0x025c0a                  __USB1Interrupt
                  0x025d0e                  _USBConfigureEndpoint
                  0x025d3c                  _USBEnableEndpoint
                  0x025d62                  _USBStallEndpoint
                  0x025da2                  _USBTransferOnePacket
                  0x025dea                  _USBCancelIO
                  0x025e24                  _USBDeviceDetach
                  0x025e2e                  _USBDeviceAttach
                  0x025e58                  _InitGraph
                  0x025e78                  _Arc
                  0x02616c                  _Line
                  0x0262fa                  _Bevel
                  0x026440                  _FillBevel
                  0x026530                  _DrawPoly
                  0x026564                  _SetFont
                  0x02657c                  _OutChar
                  0x0265f8                  _OutText
                  0x02661a                  _OutTextXY
                  0x02663a                  _GetTextWidth
                  0x02666c                  _GetTextHeight
                  0x02667c                  _GetImageWidth
                  0x02669a                  _GetImageHeight
                  0x0266b8                  _SldSetThumbSize
                  0x0266d8                  _SldGetHeight
                  0x026712                  _SldGetWidth
                  0x02674c                  _SldCreate
                  0x0267c0                  _SldGetMinMaxPos
                  0x0267ee                  _SldSetPos
                  0x026858                  _SldSetRange
                  0x0268a2                  _SldSetPage
                  0x0268ca                  _SldMsgDefault
                  0x02698c                  _SldTranslateMsg
                  0x026a00                  _SldDraw
                  0x026cd0                  _LbAddItem
                  0x026d26                  _LbCreate
                  0x026dce                  _LbDelItem
                  0x026e00                  _LbDelItemsList
                  0x026e1a                  _LbGetSel
                  0x026e32                  _LbChangeSel
                  0x026e5a                  _LbSetFocusedItem
                  0x026e84                  _LbGetFocusedItem
                  0x026ea6                  _LbTranslateMsg
                  0x026f0a                  _LbMsgDefault
                  0x026fc6                  _LbDraw
                  0x027242                  _GOLCanBeFocused
                  0x027266                  _GOLGetFocusNext
                  0x027296                  _GOLSetFocus
                  0x0272bc                  _GOLCreateScheme
                  0x0272f4                  _GOLInit
                  0x0272fe                  _GOLFree
                  0x027326                  _GOLFindObject
                  0x027338                  _GOLAddObject
                  0x027354                  _GOLDraw
                  0x0273fe                  _GOLRedrawRec
                  0x027440                  _GOLMsg
                  0x027590                  _GOLPanelDrawTsk
                  0x02774c                  _RbCreate
                  0x0277da                  _RbSetCheck
                  0x0277f8                  _RbGetCheck
                  0x027810                  _RbSetText
                  0x027824                  _RbMsgDefault
                  0x027950                  _RbTranslateMsg
                  0x0279a6                  _RbDraw
                  0x027b66                  _hex_to_bcd
                  0x027b84                  _bcd_to_hex
                  0x027b92                  __T1Interrupt
                  0x027bb6                  __U4TXInterrupt
                  0x027be0                  __U4RXInterrupt
                  0x027c0a                  _dxdate
                  0x027c42                  _u4_hand
                  0x027f34                  _EbSetText
                  0x027f56                  _EbCreate
                  0x027fd6                  _EbAddChar
                  0x028028                  _EbAddChar2
                  0x028076                  _EbAddChar3
                  0x02809e                  _EbDeleteChar
                  0x0280bc                  _EbTranslateMsg
                  0x028108                  _EbMsgDefault
                  0x028146                  _EbDraw
                  0x02828e                  _L31403
                  0x0285b4                  _L18120
                  0x0288da                  _BtnCreate
                  0x02896c                  _BtnSetText
                  0x02898e                  _BtnMsgDefault
                  0x0289c4                  _BtnTranslateMsg
                  0x028a40                  _BtnDraw
                  0x028bcc                  _CbCreate
                  0x028c3e                  _CbSetText
                  0x028c52                  _CbMsgDefault
                  0x028c9c                  _CbTranslateMsg
                  0x028cf6                  _CbDraw
                  0x028e9e                  _PbShortToString
                  0x028ef4                  _PbCreate
                  0x028f58                  _PbSetPos
                  0x028f66                  _PbTranslateMsg
                  0x028f98                  _PbDraw
                  0x02916a                  _WndCreate
                  0x0291de                  _WndSetText
                  0x0291f2                  _WndTranslateMsg
                  0x029246                  _WndDraw
                  0x029382                  _StCreate
                  0x0293f6                  _StSetText
                  0x02940a                  _StTranslateMsg
                  0x029442                  _StDraw
                  0x029590                  _EEPROMInit
                  0x0295d2                  _SPIPut
                  0x0295e6                  _EEPROMWriteEnable
                  0x0295f2                  _EEPROMReadStatus
                  0x02960e                  _EEPROMWriteByte
                  0x029644                  _EEPROMReadByte
                  0x02966a                  _EEPROMWriteWord
                  0x02967e                  _EEPROMReadWord
                  0x02969e                  _EEPROMWriteArray
                  0x029748                  _EEPROMReadArray
                  0x029780                  _delay
                  0x029784                  _PictCreate
                  0x0297e6                  _PictTranslateMsg
                  0x029818                  _PictDraw
                  0x02994e                  _USBCheckHIDRequest
                  0x029a64                  _L10596
                  0x029b74                  _L10782

External Symbols in Program Memory (by name):

                  0x020562                  _ADC
                  0x001696                  _ADS7843_start
                  0x002858                  _ASCII_to_BCD
                  0x00288c                  _ASCII_to_BCD_Eng
                  0x00e7b8                  _AUTO_REWR
                  0x02070c                  _Adc_Count
                  0x00ddb2                  _Airblank1
                  0x00dd98                  _Airblank2
                  0x011d0a                  _Aircheck
                  0x025e78                  _Arc
                  0x002820                  _BCD_to_ASCII
                  0x007d0c                  _Bar
                  0x013ccc                  _Battery
                  0x01ffc6                  _BeepInit
                  0x0262fa                  _Bevel
                  0x0091c2                  _BigArial
                  0x00dd44                  _Blood
                  0x00ddea                  _BluetoothMstr
                  0x00dd54                  _Breath
                  0x0288da                  _BtnCreate
                  0x028a40                  _BtnDraw
                  0x02898e                  _BtnMsgDefault
                  0x02896c                  _BtnSetText
                  0x0289c4                  _BtnTranslateMsg
                  0x0202fc                  _ByteToInt
                  0x00290a                  _Byte_to_PRN_TextBuffer
                  0x00dd70                  _Cal
                  0x028bcc                  _CbCreate
                  0x028cf6                  _CbDraw
                  0x028c52                  _CbMsgDefault
                  0x028c3e                  _CbSetText
                  0x028c9c                  _CbTranslateMsg
                  0x0029fc                  _ChangeBRG
                  0x01235c                  _Check_Screen
                  0x007cd8                  _ClearDevice
                  0x0204f6                  _Cons_Aduj
                  0x00e7fa                  _CopyChar
                  0x012f70                  _CopyTime
                  0x00e80a                  _CopyXCHARtoCHAR
                  0x00fbe4                  _CreateAgent
                  0x011d3a                  _CreateAlcoholdetect
                  0x013806                  _CreateBlowPlease
                  0x013fdc                  _CreateBlowPress
                  0x01129c                  _CreateBlueTooth
                  0x011b92                  _CreateCalLock
                  0x0118ba                  _CreateCalTestresult
                  0x0142c8                  _CreateCalibrate
                  0x013ac4                  _CreateChooseCal
                  0x00fd06                  _CreateChoosegas
                  0x011bb2                  _CreateConnectToPC
                  0x00fd46                  _CreateDISCONTINUED
                  0x011bce                  _CreateDatadeal
                  0x010a00                  _CreateDateTime
                  0x011514                  _CreateDebug
                  0x011458                  _CreateDebug2
                  0x011a6c                  _CreateDemarcate
                  0x01191e                  _CreateDemarcate2
                  0x011338                  _CreateDemarcateshow
                  0x011bea                  _CreateDisplayMachineID
                  0x0103aa                  _CreateEditABC
                  0x0100ce                  _CreateEditTest
                  0x00fe76                  _CreateEditeeprom
                  0x013c42                  _CreateGPS
                  0x013860                  _CreateItem
                  0x013598                  _CreateJumptox
                  0x011daa                  _CreateMain
                  0x0117d6                  _CreateMark
                  0x00fb36                  _CreateMaster
                  0x011314                  _CreateOutcomeSetpassword
                  0x00f93e                  _CreatePage
                  0x00fa32                  _CreatePage0
                  0x0116c4                  _CreatePowerOff
                  0x013afe                  _CreatePrintSetting
                  0x013068                  _CreateRecord
                  0x00fc72                  _CreateRefuse
                  0x015262                  _CreateResult
                  0x014208                  _CreateSetBackLight
                  0x00faf6                  _CreateSetpassword
                  0x00fd86                  _CreateSetting
                  0x010d52                  _CreateSoundControl
                  0x0140fc                  _CreateThickness
                  0x01097e                  _CreateUnitPDmenu
                  0x014260                  _CreateUnits
                  0x0116e0                  _CreateWait
                  0x00fa74                  _CreateYesNo
                  0x00fe26                  _Createautuooff
                  0x01172c                  _Createcaladjust
                  0x00fcb2                  _CreategasCal
                  0x020398                  _Data_Calculate1
                  0x020304                  _Data_Calculate2
                  0x02032e                  _Data_Calculate3
                  0x020236                  _Data_Calculate4
                  0x00e912                  _DefaultSETTING
                  0x00781c                  _DelayMs
                  0x007832                  _DeviceDeselect
                  0x007858                  _DeviceInit
                  0x007848                  _DeviceRead
                  0x00782e                  _DeviceSelect
                  0x007836                  _DeviceSetCommand
                  0x00783a                  _DeviceSetData
                  0x00783e                  _DeviceWrite
                  0x012ff4                  _DisplayTestResult
                  0x00ec84                  _DisplayThickness
                  0x026530                  _DrawPoly
                  0x029590                  _EEPROMInit
                  0x029748                  _EEPROMReadArray
                  0x029644                  _EEPROMReadByte
                  0x0295f2                  _EEPROMReadStatus
                  0x02967e                  _EEPROMReadWord
                  0x02969e                  _EEPROMWriteArray
                  0x02960e                  _EEPROMWriteByte
                  0x0295e6                  _EEPROMWriteEnable
                  0x02966a                  _EEPROMWriteWord
                  0x027fd6                  _EbAddChar
                  0x028028                  _EbAddChar2
                  0x028076                  _EbAddChar3
                  0x027f56                  _EbCreate
                  0x02809e                  _EbDeleteChar
                  0x028146                  _EbDraw
                  0x028108                  _EbMsgDefault
                  0x027f34                  _EbSetText
                  0x0280bc                  _EbTranslateMsg
                  0x00ddc4                  _EditID_Title
                  0x00ddda                  _EditIDstr
                  0x00dd88                  _Engineer1
                  0x00dd7a                  _Engineer2
                  0x00fde8                  _ErrorTrap
                  0x00e69a                  _FLASH_RD
                  0x026440                  _FillBevel
                  0x0206c8                  _Filter
                  0x027338                  _GOLAddObject
                  0x027242                  _GOLCanBeFocused
                  0x0272bc                  _GOLCreateScheme
                  0x027354                  _GOLDraw
                  0x015384                  _GOLDrawCallback
                  0x027326                  _GOLFindObject
                  0x00aed0                  _GOLFontDefault
                  0x0272fe                  _GOLFree
                  0x027266                  _GOLGetFocusNext
                  0x0272f4                  _GOLInit
                  0x00c0a8                  _GOLMediumFont
                  0x027440                  _GOLMsg
                  0x016d36                  _GOLMsgCallback
                  0x027590                  _GOLPanelDrawTsk
                  0x0273fe                  _GOLRedrawRec
                  0x027296                  _GOLSetFocus
                  0x00cdc4                  _GOLSmallFont
                  0x02669a                  _GetImageHeight
                  0x02667c                  _GetImageWidth
                  0x014290                  _GetStatus
                  0x02666c                  _GetTextHeight
                  0x02663a                  _GetTextWidth
                  0x00ed94                  _GetThickness
                  0x02004e                  _Get_char
                  0x00e4d8                  _HOME
                  0x0200aa                  _HexChartoChar
                  0x0200d0                  _HexChartoInt
                  0x0202d0                  _Hexshow
                  0x0254f0                  _I2CRtccReadByte
                  0x024c54                  _I2C_start
                  0x025344                  _I2cInit
                  0x024d90                  _I2cRead
                  0x02547c                  _I2cRtccWriteByte
                  0x024d62                  _I2cWrite
                  0x024c92                  _I2cWriteA
                  0x002800                  _ISRTable
                  0x025e58                  _InitGraph
                  0x00e840                  _InitialSETTING
                  0x0025a0                  _InitializeADS7843
                  0x0016ae                  _InitializeINT2
                  0x003c76                  _Inputdata
                  0x029a64                  _L10596
                  0x029b74                  _L10782
                  0x023f66                  _L10999
                  0x00648e                  _L13741
                  0x01c59e                  _L13806
                  0x01d92c                  _L13960
                  0x018af4                  _L16058
                  0x019e82                  _L17774
                  0x0285b4                  _L18120
                  0x0232e0                  _L18168
                  0x01b210                  _L18421
                  0x003d72                  _L19239
                  0x017766                  _L20872
                  0x005100                  _L23331
                  0x008000                  _L24816
                  0x02265a                  _L24912
                  0x00c0ac                  _L2700
                  0x02828e                  _L31403
                  0x020d4e                  _L32236
                  0x0219d4                  _L594
                  0x00aed4                  _L6796
                  0x0091c6                  _L8835
                  0x00e4d2                  _LEFT
                  0x002e58                  _Last_Calibration_Date
                  0x026cd0                  _LbAddItem
                  0x026e32                  _LbChangeSel
                  0x026d26                  _LbCreate
                  0x026dce                  _LbDelItem
                  0x026e00                  _LbDelItemsList
                  0x026fc6                  _LbDraw
                  0x026e84                  _LbGetFocusedItem
                  0x026e1a                  _LbGetSel
                  0x026f0a                  _LbMsgDefault
                  0x026e5a                  _LbSetFocusedItem
                  0x026ea6                  _LbTranslateMsg
                  0x02616c                  _Line
                  0x0209ce                  _Manual_Analyze
                  0x00eba0                  _Markjudgement
                  0x00de6c                  _Matchstr
                  0x00f480                  _MsgAgent
                  0x00f12c                  _MsgAlcoholdetect
                  0x00f158                  _MsgAlcoholdetected
                  0x00f18c                  _MsgBlowPlease
                  0x00f6f8                  _MsgBlowPress
                  0x00f6ac                  _MsgBlueTooth
                  0x00f68a                  _MsgCalLock
                  0x00f3fe                  _MsgCalTestresult
                  0x0143ac                  _MsgCalibrate
                  0x00f654                  _MsgChooseCal
                  0x00f344                  _MsgChoosegas
                  0x00f1cc                  _MsgDISCONTINUED
                  0x00f1ca                  _MsgDatadeal
                  0x010ef6                  _MsgDateTime
                  0x016ad8                  _MsgDemarcate
                  0x016c06                  _MsgDemarcate2
                  0x00f2c8                  _MsgDisplayMachineID
                  0x012f6e                  _MsgEditABC
                  0x012b8a                  _MsgEditDemarcate
                  0x01298c                  _MsgEditID
                  0x012e9a                  _MsgEditInspectDate
                  0x012814                  _MsgEditMark
                  0x012a72                  _MsgEditMarkValue
                  0x01261a                  _MsgEditPassword
                  0x012782                  _MsgEditTest
                  0x012d7e                  _MsgEditeeprom
                  0x014bb8                  _MsgItem
                  0x0145a6                  _MsgItemEditABC
                  0x013464                  _MsgJumptox
                  0x01222a                  _MsgMain
                  0x014404                  _MsgMark
                  0x00f4ec                  _MsgMaster
                  0x012372                  _MsgMasterPassword
                  0x00f5c0                  _MsgOutcomeSetpassword
                  0x012550                  _MsgPassword
                  0x00f43c                  _MsgPowerOFF
                  0x0102d8                  _MsgPrintSetting
                  0x00f830                  _MsgRecord
                  0x00f43e                  _MsgRefuse
                  0x0120be                  _MsgResult
                  0x012470                  _MsgScreenPassword
                  0x00f2fa                  _MsgSetBackLight
                  0x011176                  _MsgSetDate
                  0x00f578                  _MsgSetpassword
                  0x00f216                  _MsgSetting
                  0x00f284                  _MsgSoundControl
                  0x00f794                  _MsgThickness
                  0x00f328                  _MsgToPC
                  0x011054                  _MsgUnitPDment
                  0x00f340                  _MsgWait
                  0x00f5f2                  _MsgYesNo
                  0x010238                  _Msgcaladjust
                  0x00f3b0                  _MsggasCal
                  0x00de2a                  _Nonestr
                  0x002a7e                  _Off_Printer
                  0x02657c                  _OutChar
                  0x0265f8                  _OutText
                  0x02661a                  _OutTextXY
                  0x00e502                  _PC_copy
                  0x028ef4                  _PbCreate
                  0x028f98                  _PbDraw
                  0x028f58                  _PbSetPos
                  0x028e9e                  _PbShortToString
                  0x028f66                  _PbTranslateMsg
                  0x00e4fc                  _PicGPS
                  0x00e4f6                  _Picrecord
                  0x00e4f0                  _Picsetting
                  0x029784                  _PictCreate
                  0x029818                  _PictDraw
                  0x0297e6                  _PictTranslateMsg
                  0x00e4ea                  _Pictime
                  0x007f6a                  _Power_ON_OFF
                  0x00de0c                  _PrintMstr
                  0x0032e2                  _Print_ITEM
                  0x003558                  _Print_Last_Calibration_Date
                  0x002aec                  _Print_Table_Text_Alcovisor_Mercury
                  0x002f0e                  _Print_Table_Text_Discontiued
                  0x003bd8                  _Print_Table_Text_Eng
                  0x00306a                  _Print_Table_Text_GPS
                  0x002cba                  _Print_Table_Text_GUILING
                  0x002bb4                  _Print_Table_Text_JILUHAO
                  0x002ff8                  _Print_Table_Text_JIUJINGHANLIANG
                  0x003720                  _Print_Table_Text_NONGDU
                  0x00347e                  _Print_Table_Text_RIQI
                  0x002ea4                  _Print_Table_Text_RefuseTest
                  0x002c2e                  _Print_Table_Text_SHIJIAN
                  0x003244                  _Print_Table_Text_Signature
                  0x0031f6                  _Print_Table_Text_SignatureCheck
                  0x002fac                  _Print_Table_Text_TestModeManual
                  0x002f78                  _Print_Table_Text_TestModePassive
                  0x002b44                  _Print_Table_Text_YIQIHAO
                  0x003176                  _Print_Table_Text_temperature
                  0x003378                  _Print_TestRecord
                  0x00301c                  _Print_UnderLine
                  0x003292                  _Print_datareturn
                  0x0032a2                  _Printdata
                  0x00ef04                  _ProcessIO
                  0x020770                  _Pump_action
                  0x007c6c                  _PutImage
                  0x0078fc                  _PutImage16BPP
                  0x007b74                  _PutImage1BPP
                  0x007a8a                  _PutImage4BPP
                  0x0079ae                  _PutImage8BPP
                  0x007d88                  _PutPixel
                  0x00e55a                  _RES_GPGGA
                  0x00e562                  _RES_GPRMC
                  0x00e4cc                  _RIGHT
                  0x025246                  _RTCCCalculateWeekDay
                  0x0251ca                  _RTCCInit
                  0x024ff8                  _RTCCProcessEvents
                  0x0251bc                  _RTCCSet
                  0x025296                  _RTCCSetBinDay
                  0x025220                  _RTCCSetBinHour
                  0x0251f6                  _RTCCSetBinMin
                  0x0252e6                  _RTCCSetBinMonth
                  0x0251cc                  _RTCCSetBinSec
                  0x02530c                  _RTCCSetBinYear
                  0x0251aa                  _RTCCUnlock
                  0x024eaa                  _RTCRead
                  0x024f4c                  _RTCWrite
                  0x02774c                  _RbCreate
                  0x0279a6                  _RbDraw
                  0x0277f8                  _RbGetCheck
                  0x027824                  _RbMsgDefault
                  0x0277da                  _RbSetCheck
                  0x027810                  _RbSetText
                  0x027950                  _RbTranslateMsg
                  0x002566                  _ReadFromCharFromADS7843
                  0x010e9e                  _RemovePullDownMenu
                  0x007dea                  _ResetDevice
                  0x011c90                  _ResidentAlcoholdetected
                  0x00e682                  _SPI2_WAIT
                  0x0295d2                  _SPIPut
                  0x00e81a                  _SaveAdjust
                  0x0144b4                  _SaveItemByte
                  0x012016                  _SaveReadItem
                  0x002a98                  _Search_Table
                  0x002ad4                  _Search_zero
                  0x00789a                  _SetAddress
                  0x026564                  _SetFont
                  0x007dd0                  _SetReg
                  0x0254be                  _SetRtccDefault
                  0x013d34                  _ShowBattery
                  0x013d24                  _ShowBatteryEmpty
                  0x010da4                  _ShowPullDownMenu
                  0x010c58                  _ShowUnitPullDownMeny
                  0x007f6c                  _SideButtonsMsg
                  0x02674c                  _SldCreate
                  0x026a00                  _SldDraw
                  0x0266d8                  _SldGetHeight
                  0x0267c0                  _SldGetMinMaxPos
                  0x026712                  _SldGetWidth
                  0x0268ca                  _SldMsgDefault
                  0x0268a2                  _SldSetPage
                  0x0267ee                  _SldSetPos
                  0x026858                  _SldSetRange
                  0x0266b8                  _SldSetThumbSize
                  0x02698c                  _SldTranslateMsg
                  0x00f904                  _SoundControlupdate
                  0x029382                  _StCreate
                  0x029442                  _StDraw
                  0x0293f6                  _StSetText
                  0x02940a                  _StTranslateMsg
                  0x002a48                  _StartPrint
                  0x00ee5e                  _StartScreen
                  0x00d2dc                  _Table_ASCII0816
                  0x00cdc8                  _Table_kN
                  0x00ce49                  _Table_kT
                  0x00d034                  _Table_kVH
                  0x0207f4                  _Temperature
                  0x00e51a                  _Test1
                  0x00e514                  _Test2
                  0x00e50e                  _Test3
                  0x00ee50                  _TickInit
                  0x00361e                  _Timeto_Calibration
                  0x001e64                  _TouchCalibration
                  0x001d7c                  _TouchGetCalPoints
                  0x001756                  _TouchGetMsg
                  0x0016f4                  _TouchGetX
                  0x001722                  _TouchGetY
                  0x0019ae                  _TouchLoadCalibration
                  0x001af6                  _TouchLoadCalibrationDefault
                  0x0018aa                  _TouchStoreCalibration
                  0x00198e                  _TouchStoreCalibrationDefault
                  0x0029e2                  _UART1transtart
                  0x00dd3c                  _UART4p
                  0x00f0f8                  _USBCBCheckOtherReq
                  0x00f0f6                  _USBCBErrorHandler
                  0x00f0fe                  _USBCBInitEP
                  0x00f116                  _USBCBSendResume
                  0x00f0fc                  _USBCBStdSetDscHandler
                  0x00f0f0                  _USBCBSuspend
                  0x00f0f2                  _USBCBWakeFromSuspend
                  0x00f0f4                  _USBCB_SOF_Handler
                  0x025dea                  _USBCancelIO
                  0x02994e                  _USBCheckHIDRequest
                  0x025b02                  _USBCheckStdRequest
                  0x025d0e                  _USBConfigureEndpoint
                  0x025bbe                  _USBCtrlEPService
                  0x0257c6                  _USBCtrlEPServiceComplete
                  0x025880                  _USBCtrlTrfInHandler
                  0x0256e4                  _USBCtrlTrfOutHandler
                  0x0255f2                  _USBCtrlTrfRxService
                  0x025b8c                  _USBCtrlTrfSetupHandler
                  0x02570e                  _USBCtrlTrfTxService
                  0x025e2e                  _USBDeviceAttach
                  0x025e24                  _USBDeviceDetach
                  0x025534                  _USBDeviceInit
                  0x025d3c                  _USBEnableEndpoint
                  0x0256ac                  _USBPrepareForNextSetupTrf
                  0x007fb6                  _USBSleepOnSuspend
                  0x025d62                  _USBStallEndpoint
                  0x0255cc                  _USBStallHandler
                  0x025a5e                  _USBStdFeatureReqHandler
                  0x0258d8                  _USBStdGetDscHandler
                  0x0259da                  _USBStdGetStatusHandler
                  0x02599a                  _USBStdSetCfgHandler
                  0x0255bc                  _USBSuspend
                  0x025da2                  _USBTransferOnePacket
                  0x0255aa                  _USBWakeFromSuspend
                  0x00e3f4                  _USB_CD_Ptr
                  0x00e3ee                  _USB_SD_Ptr
                  0x017312                  _USER_USB_CALLBACK_EVENT_HANDLER
                  0x010ffa                  _UpdateRTCCDates
                  0x00eefc                  _UserInit
                  0x02916a                  _WndCreate
                  0x029246                  _WndDraw
                  0x0291de                  _WndSetText
                  0x0291f2                  _WndTranslateMsg
                  0x00de4a                  _Workstr
                  0x002536                  _WriteCharToADS7843
                  0x007fea                  __DefaultInterrupt
                  0x0015e2                  __Getmem
                  0x0016dc                  __INT2Interrupt
                  0x027b92                  __T1Interrupt
                  0x01ff94                  __T2Interrupt
                  0x002632                  __T3Interrupt
                  0x024bec                  __T4Interrupt
                  0x020c82                  __T5Interrupt
                  0x002998                  __U1RXInterrupt
                  0x002964                  __U1TXInterrupt
                  0x027be0                  __U4RXInterrupt
                  0x027bb6                  __U4TXInterrupt
                  0x025c0a                  __USB1Interrupt
                  0x00166c                  ___divsi3
                  0x001494                  ___mulp32eds3
                  0x001494                  ___mulp32peds3
                  0x001494                  ___mulsi3
                  0x00164c                  ___udivsi3
                  0x001436                  __data_init
                  0x001436                  __data_init_standard
                  0x001426                  __psv_init
                  0x001404                  __resetPRI
                  0x025404                  _ack
                  0x02014a                  _adc_delay
                  0x02001a                  _adcinit
                  0x020c10                  _ads7822
                  0x00e4c0                  _ag3
                  0x00e4de                  _arrowDown
                  0x00e4e4                  _arrowUp
                  0x024e9c                  _b2h
                  0x027b84                  _bcd_to_hex
                  0x00e4b4                  _bluetooth
                  0x02088c                  _caiyang
                  0x02538a                  _check
                  0x00e478                  _configDescriptor1
                  0x020158                  _cons_calculate
                  0x00e56a                  _dayd
                  0x029780                  _delay
                  0x00168a                  _delay7843
                  0x00e642                  _delay_ms
                  0x01fffa                  _delayms
                  0x01ffec                  _delayus
                  0x00e4a2                  _device_dsc
                  0x027c0a                  _dxdate
                  0x024c46                  _error_i2
                  0x015070                  _flash_buffer
                  0x001544                  _free
                  0x0024b4                  _getDisplayPoint
                  0x00e4c6                  _gpslogo
                  0x0200fc                  _hex_bcd2
                  0x027b66                  _hex_to_bcd
                  0x0200a2                  _hex_to_char
                  0x00e3f6                  _hid_rpt01
                  0x024c14                  _initI2
                  0x002a32                  _initPrint
                  0x00e64a                  _initSPI2
                  0x002918                  _initialBlueTooth
                  0x002924                  _initialUART1
                  0x00e58e                  _initialUART4
                  0x00ee32                  _initimer1
                  0x020142                  _inti_ads7822
                  0x0016c6                  _inti_time3
                  0x020038                  _inti_time5
                  0x01732e                  _main
                  0x0014a0                  _malloc
                  0x0015ac                  _memset
                  0x025418                  _nack
                  0x00de80                  _no_bluetooth_button_RecordStr
                  0x02084a                  _prepare_and_Charge
                  0x020bdc                  _press_test
                  0x00e4ba                  _printerbutton
                  0x02000e                  _pumpinit
                  0x00edf2                  _readrecord
                  0x0253d8                  _recive
                  0x00e474                  _sd000
                  0x00e440                  _sd001
                  0x00e412                  _sd002
                  0x0253a4                  _send
                  0x00e508                  _set2
                  0x001b0e                  _setCalibrationMatrix
                  0x0150ce                  _solid_data
                  0x02534a                  _start
                  0x02536a                  _stop
                  0x0015f0                  _strchr
                  0x0015ba                  _strstr
                  0x020354                  _tem_interzone
                  0x016a42                  _testflash
                  0x027c42                  _u4_hand
                  0x0108d8                  _updateDateTimeEb
                  0x013420                  _updateJumptoxEb
                  0x00e774                  _write_buffer
                  0x00e794                  _write_bufferend
                  0x00e740                  _write_bufferstart
                  0x01512c                  _writerecord
                  0x02542c                  _wrtoROM

Memory Configuration

Name             Origin             Length             Attributes
data             0x000800           0x004000           a !xr
reset            0x000000           0x000004  
ivt              0x000004           0x0000fc  
aivt             0x000104           0x0000fc  
program          0x000200           0x02a9f8           xr
config4          0x02abf8           0x000002  
config3          0x02abfa           0x000002  
config2          0x02abfc           0x000002  
config1          0x02abfe           0x000002  
*default*        0x000000           0xffffffff  

Linker script and memory map

LOAD WAT89EC-8_RU_B-temp\Beep.o
LOAD WAT89EC-8_RU_B-temp\Button.o
LOAD WAT89EC-8_RU_B-temp\CheckBox.o
LOAD WAT89EC-8_RU_B-temp\EditBox.o
LOAD WAT89EC-8_RU_B-temp\EEPROM.o
LOAD WAT89EC-8_RU_B-temp\Fonts.o
LOAD WAT89EC-8_RU_B-temp\GOL.o
LOAD WAT89EC-8_RU_B-temp\GroupBox.o
LOAD WAT89EC-8_RU_B-temp\HX8347A.o
LOAD WAT89EC-8_RU_B-temp\ListBox.o
LOAD WAT89EC-8_RU_B-temp\MainDemo.o
LOAD WAT89EC-8_RU_B-temp\Meter.o
LOAD WAT89EC-8_RU_B-temp\Pgps.o
LOAD WAT89EC-8_RU_B-temp\PIC24 HID Bootloader Remapping.o
LOAD WAT89EC-8_RU_B-temp\Picture.o
LOAD WAT89EC-8_RU_B-temp\Pictures PIC24.o
LOAD WAT89EC-8_RU_B-temp\Primitive.o
LOAD WAT89EC-8_RU_B-temp\printer.o
LOAD WAT89EC-8_RU_B-temp\ProgressBar.o
LOAD WAT89EC-8_RU_B-temp\RadioButton.o
LOAD WAT89EC-8_RU_B-temp\RoundDial.o
LOAD WAT89EC-8_RU_B-temp\rtcc.o
LOAD WAT89EC-8_RU_B-temp\S6D0129_S6D0139.o
LOAD WAT89EC-8_RU_B-temp\SideButtons.o
LOAD WAT89EC-8_RU_B-temp\Slider.o
LOAD WAT89EC-8_RU_B-temp\StaticText.o
LOAD WAT89EC-8_RU_B-temp\TouchScreen.o
LOAD WAT89EC-8_RU_B-temp\usb_descriptors.o
LOAD WAT89EC-8_RU_B-temp\usb_device.o
LOAD WAT89EC-8_RU_B-temp\usb_function_hid.o
LOAD WAT89EC-8_RU_B-temp\usb_hal_pic24.o
LOAD WAT89EC-8_RU_B-temp\Window.o
LOAD WAT89EC-8_RU_B-temp\ziku.o
LOAD c:/program files (x86)/microchip/mplab c30/bin/bin/../../lib/PIC24F\libpPIC24Fxxx-coff.a
                    0x2abfa                  __CONFIG3 = 0x2abfa
                    0x2abfc                  __CONFIG2 = 0x2abfc
                    0x2abfe                  __CONFIG1 = 0x2abfe
                    0x0004                  __IVT_BASE = 0x4
                    0x0104                  __AIVT_BASE = 0x104
                    0x0800                  __DATA_BASE = 0x800
                    0x0200                  __CODE_BASE = 0x200

.reset            0x000000          0x4
                  0x000000          0x2 SHORT 0x1404 <code 339> (__reset)
                  0x000001          0x2 SHORT 0x4
                  0x000002          0x2 SHORT 0x0 ((<code 339> (__reset) >> 0x10) & 0x7f)
                  0x000003          0x2 SHORT 0x0

.text             0x000200       0x148a
 *(.init)
 .init            0x000200       0x1204 WAT89EC-8_RU_B-temp\PIC24 HID Bootloader Remapping.o
 .init            0x001404         0x32 c:/program files (x86)/microchip/mplab c30/bin/bin/../../lib\libpic30-coff.a(crt0_standard.o)
                  0x001404                  _resetPRI
                  0x001404                  _reset
                  0x001426                  _psv_init
 .init            0x001436         0x5e c:/program files (x86)/microchip/mplab c30/bin/bin/../../lib\libpic30-coff.a(data_init_standard.o)
                  0x001436                  _data_init_standard
                  0x001436                  _data_init
 *(.user_init)
 *(.handle)
 *(.libc)
 .libc            0x001494          0xc c:/program files (x86)/microchip/mplab c30/bin/bin/../../lib\libm-coff.a(mulsi3.o)
                  0x001494                  __mulp32peds3
                  0x001494                  __mulsi3
                  0x001494                  __mulp32eds3
 .libc            0x0014a0         0xa4 c:/program files (x86)/microchip/mplab c30/bin/bin/../../lib\libc-coff.a(malloc.o)
                  0x0014a0                  malloc
 .libc            0x001544         0x68 c:/program files (x86)/microchip/mplab c30/bin/bin/../../lib\libc-coff.a(free.o)
                  0x001544                  free
 .libc            0x0015ac          0xe c:/program files (x86)/microchip/mplab c30/bin/bin/../../lib\libc-coff.a(memset.o)
                  0x0015ac                  memset
 .libc            0x0015ba         0x28 c:/program files (x86)/microchip/mplab c30/bin/bin/../../lib\libc-coff.a(strstr.o)
                  0x0015ba                  strstr
 .libc            0x0015e2          0xe c:/program files (x86)/microchip/mplab c30/bin/bin/../../lib\libc-coff.a(xgetmem.o)
                  0x0015e2                  _Getmem
 .libc            0x0015f0         0x12 c:/program files (x86)/microchip/mplab c30/bin/bin/../../lib\libc-coff.a(strchr.o)
                  0x0015f0                  strchr
 .libc            0x001602         0x2c c:/program files (x86)/microchip/mplab c30/bin/bin/../../lib\libpic30-coff.a(sbrk.o)
                  0x001602                  sbrk
 .libc            0x00162e         0x1e c:/program files (x86)/microchip/mplab c30/bin/bin/../../lib\libpic30-coff.a(brk.o)
                  0x00162e                  brk
 *(.libm)
 .libm            0x00164c         0x20 c:/program files (x86)/microchip/mplab c30/bin/bin/../../lib\libm-coff.a(udivsi3.o)
                  0x00164c                  __udivsi3
 .libm            0x00166c         0x1e c:/program files (x86)/microchip/mplab c30/bin/bin/../../lib\libm-coff.a(divsi3.o)
                  0x00166c                  __divsi3
 *(.libdsp)
 *(.lib*)

usercode
 *(usercode)

__CONFIG3
 *(__CONFIG3.sec)

__CONFIG2         0x02abfc          0x2
 *(__CONFIG2.sec)
 __CONFIG2.sec    0x02abfc          0x2 WAT89EC-8_RU_B-temp\MainDemo.o

__CONFIG1         0x02abfe          0x2
 *(__CONFIG1.sec)
 __CONFIG1.sec    0x02abfe          0x2 WAT89EC-8_RU_B-temp\MainDemo.o

.comment
 *(.comment)

.debug_info
 *(.debug_info)
 *(.gnu.linkonce.wi.*)

.debug_abbrev
 *(.debug_abbrev)

.debug_line
 *(.debug_line)

.debug_frame
 *(.debug_frame)

.debug_str
 *(.debug_str)

.debug_loc
 *(.debug_loc)

.debug_macinfo
 *(.debug_macinfo)

.debug_pubnames
 *(.debug_pubnames)

.debug_ranges
 *(.debug_ranges)

.debug_aranges
 *(.debug_aranges)

.ivt              0x000004         0xfc
                  0x000004          0x4 LONG 0x7fea DEFINED (__ReservedTrap0)?<code 339> (__ReservedTrap0):<code 339> (__DefaultInterrupt)
                  0x000006          0x4 LONG 0x7fea DEFINED (__OscillatorFail)?<code 339> (__OscillatorFail):<code 339> (__DefaultInterrupt)
                  0x000008          0x4 LONG 0x7fea DEFINED (__AddressError)?<code 339> (__AddressError):<code 339> (__DefaultInterrupt)
                  0x00000a          0x4 LONG 0x7fea DEFINED (__StackError)?<code 339> (__StackError):<code 339> (__DefaultInterrupt)
                  0x00000c          0x4 LONG 0x7fea DEFINED (__MathError)?<code 339> (__MathError):<code 339> (__DefaultInterrupt)
                  0x00000e          0x4 LONG 0x7fea DEFINED (__ReservedTrap5)?<code 339> (__ReservedTrap5):<code 339> (__DefaultInterrupt)
                  0x000010          0x4 LONG 0x7fea DEFINED (__ReservedTrap6)?<code 339> (__ReservedTrap6):<code 339> (__DefaultInterrupt)
                  0x000012          0x4 LONG 0x7fea DEFINED (__ReservedTrap7)?<code 339> (__ReservedTrap7):<code 339> (__DefaultInterrupt)
                  0x000014          0x4 LONG 0x7fea DEFINED (__INT0Interrupt)?<code 339> (__INT0Interrupt):<code 339> (__DefaultInterrupt)
                  0x000016          0x4 LONG 0x7fea DEFINED (__IC1Interrupt)?<code 339> (__IC1Interrupt):<code 339> (__DefaultInterrupt)
                  0x000018          0x4 LONG 0x7fea DEFINED (__OC1Interrupt)?<code 339> (__OC1Interrupt):<code 339> (__DefaultInterrupt)
                  0x00001a          0x4 LONG 0x27b92 DEFINED (__T1Interrupt)?<code 339> (__T1Interrupt):<code 339> (__DefaultInterrupt)
                  0x00001c          0x4 LONG 0x7fea DEFINED (__Interrupt4)?<code 339> (__Interrupt4):<code 339> (__DefaultInterrupt)
                  0x00001e          0x4 LONG 0x7fea DEFINED (__IC2Interrupt)?<code 339> (__IC2Interrupt):<code 339> (__DefaultInterrupt)
                  0x000020          0x4 LONG 0x7fea DEFINED (__OC2Interrupt)?<code 339> (__OC2Interrupt):<code 339> (__DefaultInterrupt)
                  0x000022          0x4 LONG 0x1ff94 DEFINED (__T2Interrupt)?<code 339> (__T2Interrupt):<code 339> (__DefaultInterrupt)
                  0x000024          0x4 LONG 0x2632 DEFINED (__T3Interrupt)?<code 339> (__T3Interrupt):<code 339> (__DefaultInterrupt)
                  0x000026          0x4 LONG 0x7fea DEFINED (__SPI1ErrInterrupt)?<code 339> (__SPI1ErrInterrupt):<code 339> (__DefaultInterrupt)
                  0x000028          0x4 LONG 0x7fea DEFINED (__SPI1Interrupt)?<code 339> (__SPI1Interrupt):<code 339> (__DefaultInterrupt)
                  0x00002a          0x4 LONG 0x2998 DEFINED (__U1RXInterrupt)?<code 339> (__U1RXInterrupt):<code 339> (__DefaultInterrupt)
                  0x00002c          0x4 LONG 0x2964 DEFINED (__U1TXInterrupt)?<code 339> (__U1TXInterrupt):<code 339> (__DefaultInterrupt)
                  0x00002e          0x4 LONG 0x7fea DEFINED (__ADC1Interrupt)?<code 339> (__ADC1Interrupt):<code 339> (__DefaultInterrupt)
                  0x000030          0x4 LONG 0x7fea DEFINED (__Interrupt14)?<code 339> (__Interrupt14):<code 339> (__DefaultInterrupt)
                  0x000032          0x4 LONG 0x7fea DEFINED (__Interrupt15)?<code 339> (__Interrupt15):<code 339> (__DefaultInterrupt)
                  0x000034          0x4 LONG 0x7fea DEFINED (__SI2C1Interrupt)?<code 339> (__SI2C1Interrupt):<code 339> (__DefaultInterrupt)
                  0x000036          0x4 LONG 0x7fea DEFINED (__MI2C1Interrupt)?<code 339> (__MI2C1Interrupt):<code 339> (__DefaultInterrupt)
                  0x000038          0x4 LONG 0x7fea DEFINED (__CompInterrupt)?<code 339> (__CompInterrupt):<code 339> (__DefaultInterrupt)
                  0x00003a          0x4 LONG 0x7fea DEFINED (__CNInterrupt)?<code 339> (__CNInterrupt):<code 339> (__DefaultInterrupt)
                  0x00003c          0x4 LONG 0x7fea DEFINED (__INT1Interrupt)?<code 339> (__INT1Interrupt):<code 339> (__DefaultInterrupt)
                  0x00003e          0x4 LONG 0x7fea DEFINED (__Interrupt21)?<code 339> (__Interrupt21):<code 339> (__DefaultInterrupt)
                  0x000040          0x4 LONG 0x7fea DEFINED (__IC7Interrupt)?<code 339> (__IC7Interrupt):<code 339> (__DefaultInterrupt)
                  0x000042          0x4 LONG 0x7fea DEFINED (__IC8Interrupt)?<code 339> (__IC8Interrupt):<code 339> (__DefaultInterrupt)
                  0x000044          0x4 LONG 0x7fea DEFINED (__Interrupt24)?<code 339> (__Interrupt24):<code 339> (__DefaultInterrupt)
                  0x000046          0x4 LONG 0x7fea DEFINED (__OC3Interrupt)?<code 339> (__OC3Interrupt):<code 339> (__DefaultInterrupt)
                  0x000048          0x4 LONG 0x7fea DEFINED (__OC4Interrupt)?<code 339> (__OC4Interrupt):<code 339> (__DefaultInterrupt)
                  0x00004a          0x4 LONG 0x24bec DEFINED (__T4Interrupt)?<code 339> (__T4Interrupt):<code 339> (__DefaultInterrupt)
                  0x00004c          0x4 LONG 0x20c82 DEFINED (__T5Interrupt)?<code 339> (__T5Interrupt):<code 339> (__DefaultInterrupt)
                  0x00004e          0x4 LONG 0x16dc DEFINED (__INT2Interrupt)?<code 339> (__INT2Interrupt):<code 339> (__DefaultInterrupt)
                  0x000050          0x4 LONG 0x7fea DEFINED (__U2RXInterrupt)?<code 339> (__U2RXInterrupt):<code 339> (__DefaultInterrupt)
                  0x000052          0x4 LONG 0x7fea DEFINED (__U2TXInterrupt)?<code 339> (__U2TXInterrupt):<code 339> (__DefaultInterrupt)
                  0x000054          0x4 LONG 0x7fea DEFINED (__SPI2ErrInterrupt)?<code 339> (__SPI2ErrInterrupt):<code 339> (__DefaultInterrupt)
                  0x000056          0x4 LONG 0x7fea DEFINED (__SPI2Interrupt)?<code 339> (__SPI2Interrupt):<code 339> (__DefaultInterrupt)
                  0x000058          0x4 LONG 0x7fea DEFINED (__Interrupt34)?<code 339> (__Interrupt34):<code 339> (__DefaultInterrupt)
                  0x00005a          0x4 LONG 0x7fea DEFINED (__Interrupt35)?<code 339> (__Interrupt35):<code 339> (__DefaultInterrupt)
                  0x00005c          0x4 LONG 0x7fea DEFINED (__Interrupt36)?<code 339> (__Interrupt36):<code 339> (__DefaultInterrupt)
                  0x00005e          0x4 LONG 0x7fea DEFINED (__IC3Interrupt)?<code 339> (__IC3Interrupt):<code 339> (__DefaultInterrupt)
                  0x000060          0x4 LONG 0x7fea DEFINED (__IC4Interrupt)?<code 339> (__IC4Interrupt):<code 339> (__DefaultInterrupt)
                  0x000062          0x4 LONG 0x7fea DEFINED (__IC5Interrupt)?<code 339> (__IC5Interrupt):<code 339> (__DefaultInterrupt)
                  0x000064          0x4 LONG 0x7fea DEFINED (__IC6Interrupt)?<code 339> (__IC6Interrupt):<code 339> (__DefaultInterrupt)
                  0x000066          0x4 LONG 0x7fea DEFINED (__OC5Interrupt)?<code 339> (__OC5Interrupt):<code 339> (__DefaultInterrupt)
                  0x000068          0x4 LONG 0x7fea DEFINED (__OC6Interrupt)?<code 339> (__OC6Interrupt):<code 339> (__DefaultInterrupt)
                  0x00006a          0x4 LONG 0x7fea DEFINED (__OC7Interrupt)?<code 339> (__OC7Interrupt):<code 339> (__DefaultInterrupt)
                  0x00006c          0x4 LONG 0x7fea DEFINED (__OC8Interrupt)?<code 339> (__OC8Interrupt):<code 339> (__DefaultInterrupt)
                  0x00006e          0x4 LONG 0x7fea DEFINED (__PMPInterrupt)?<code 339> (__PMPInterrupt):<code 339> (__DefaultInterrupt)
                  0x000070          0x4 LONG 0x7fea DEFINED (__Interrupt46)?<code 339> (__Interrupt46):<code 339> (__DefaultInterrupt)
                  0x000072          0x4 LONG 0x7fea DEFINED (__Interrupt47)?<code 339> (__Interrupt47):<code 339> (__DefaultInterrupt)
                  0x000074          0x4 LONG 0x7fea DEFINED (__Interrupt48)?<code 339> (__Interrupt48):<code 339> (__DefaultInterrupt)
                  0x000076          0x4 LONG 0x7fea DEFINED (__SI2C2Interrupt)?<code 339> (__SI2C2Interrupt):<code 339> (__DefaultInterrupt)
                  0x000078          0x4 LONG 0x7fea DEFINED (__MI2C2Interrupt)?<code 339> (__MI2C2Interrupt):<code 339> (__DefaultInterrupt)
                  0x00007a          0x4 LONG 0x7fea DEFINED (__Interrupt51)?<code 339> (__Interrupt51):<code 339> (__DefaultInterrupt)
                  0x00007c          0x4 LONG 0x7fea DEFINED (__Interrupt52)?<code 339> (__Interrupt52):<code 339> (__DefaultInterrupt)
                  0x00007e          0x4 LONG 0x7fea DEFINED (__INT3Interrupt)?<code 339> (__INT3Interrupt):<code 339> (__DefaultInterrupt)
                  0x000080          0x4 LONG 0x7fea DEFINED (__INT4Interrupt)?<code 339> (__INT4Interrupt):<code 339> (__DefaultInterrupt)
                  0x000082          0x4 LONG 0x7fea DEFINED (__Interrupt55)?<code 339> (__Interrupt55):<code 339> (__DefaultInterrupt)
                  0x000084          0x4 LONG 0x7fea DEFINED (__Interrupt56)?<code 339> (__Interrupt56):<code 339> (__DefaultInterrupt)
                  0x000086          0x4 LONG 0x7fea DEFINED (__Interrupt57)?<code 339> (__Interrupt57):<code 339> (__DefaultInterrupt)
                  0x000088          0x4 LONG 0x7fea DEFINED (__Interrupt58)?<code 339> (__Interrupt58):<code 339> (__DefaultInterrupt)
                  0x00008a          0x4 LONG 0x7fea DEFINED (__Interrupt59)?<code 339> (__Interrupt59):<code 339> (__DefaultInterrupt)
                  0x00008c          0x4 LONG 0x7fea DEFINED (__Interrupt60)?<code 339> (__Interrupt60):<code 339> (__DefaultInterrupt)
                  0x00008e          0x4 LONG 0x7fea DEFINED (__Interrupt61)?<code 339> (__Interrupt61):<code 339> (__DefaultInterrupt)
                  0x000090          0x4 LONG 0x7fea DEFINED (__RTCCInterrupt)?<code 339> (__RTCCInterrupt):<code 339> (__DefaultInterrupt)
                  0x000092          0x4 LONG 0x7fea DEFINED (__Interrupt63)?<code 339> (__Interrupt63):<code 339> (__DefaultInterrupt)
                  0x000094          0x4 LONG 0x7fea DEFINED (__Interrupt64)?<code 339> (__Interrupt64):<code 339> (__DefaultInterrupt)
                  0x000096          0x4 LONG 0x7fea DEFINED (__U1ErrInterrupt)?<code 339> (__U1ErrInterrupt):<code 339> (__DefaultInterrupt)
                  0x000098          0x4 LONG 0x7fea DEFINED (__U2ErrInterrupt)?<code 339> (__U2ErrInterrupt):<code 339> (__DefaultInterrupt)
                  0x00009a          0x4 LONG 0x7fea DEFINED (__CRCInterrupt)?<code 339> (__CRCInterrupt):<code 339> (__DefaultInterrupt)
                  0x00009c          0x4 LONG 0x7fea DEFINED (__Interrupt68)?<code 339> (__Interrupt68):<code 339> (__DefaultInterrupt)
                  0x00009e          0x4 LONG 0x7fea DEFINED (__Interrupt69)?<code 339> (__Interrupt69):<code 339> (__DefaultInterrupt)
                  0x0000a0          0x4 LONG 0x7fea DEFINED (__Interrupt70)?<code 339> (__Interrupt70):<code 339> (__DefaultInterrupt)
                  0x0000a2          0x4 LONG 0x7fea DEFINED (__Interrupt71)?<code 339> (__Interrupt71):<code 339> (__DefaultInterrupt)
                  0x0000a4          0x4 LONG 0x7fea DEFINED (__LVDInterrupt)?<code 339> (__LVDInterrupt):<code 339> (__DefaultInterrupt)
                  0x0000a6          0x4 LONG 0x7fea DEFINED (__Interrupt73)?<code 339> (__Interrupt73):<code 339> (__DefaultInterrupt)
                  0x0000a8          0x4 LONG 0x7fea DEFINED (__Interrupt74)?<code 339> (__Interrupt74):<code 339> (__DefaultInterrupt)
                  0x0000aa          0x4 LONG 0x7fea DEFINED (__Interrupt75)?<code 339> (__Interrupt75):<code 339> (__DefaultInterrupt)
                  0x0000ac          0x4 LONG 0x7fea DEFINED (__Interrupt76)?<code 339> (__Interrupt76):<code 339> (__DefaultInterrupt)
                  0x0000ae          0x4 LONG 0x7fea DEFINED (__CTMUInterrupt)?<code 339> (__CTMUInterrupt):<code 339> (__DefaultInterrupt)
                  0x0000b0          0x4 LONG 0x7fea DEFINED (__Interrupt78)?<code 339> (__Interrupt78):<code 339> (__DefaultInterrupt)
                  0x0000b2          0x4 LONG 0x7fea DEFINED (__Interrupt79)?<code 339> (__Interrupt79):<code 339> (__DefaultInterrupt)
                  0x0000b4          0x4 LONG 0x7fea DEFINED (__Interrupt80)?<code 339> (__Interrupt80):<code 339> (__DefaultInterrupt)
                  0x0000b6          0x4 LONG 0x7fea DEFINED (__U3ErrInterrupt)?<code 339> (__U3ErrInterrupt):<code 339> (__DefaultInterrupt)
                  0x0000b8          0x4 LONG 0x7fea DEFINED (__U3RXInterrupt)?<code 339> (__U3RXInterrupt):<code 339> (__DefaultInterrupt)
                  0x0000ba          0x4 LONG 0x7fea DEFINED (__U3TXInterrupt)?<code 339> (__U3TXInterrupt):<code 339> (__DefaultInterrupt)
                  0x0000bc          0x4 LONG 0x7fea DEFINED (__SI2C3Interrupt)?<code 339> (__SI2C3Interrupt):<code 339> (__DefaultInterrupt)
                  0x0000be          0x4 LONG 0x7fea DEFINED (__MI2C3Interrupt)?<code 339> (__MI2C3Interrupt):<code 339> (__DefaultInterrupt)
                  0x0000c0          0x4 LONG 0x25c0a DEFINED (__USB1Interrupt)?<code 339> (__USB1Interrupt):<code 339> (__DefaultInterrupt)
                  0x0000c2          0x4 LONG 0x7fea DEFINED (__U4ErrInterrupt)?<code 339> (__U4ErrInterrupt):<code 339> (__DefaultInterrupt)
                  0x0000c4          0x4 LONG 0x27be0 DEFINED (__U4RXInterrupt)?<code 339> (__U4RXInterrupt):<code 339> (__DefaultInterrupt)
                  0x0000c6          0x4 LONG 0x27bb6 DEFINED (__U4TXInterrupt)?<code 339> (__U4TXInterrupt):<code 339> (__DefaultInterrupt)
                  0x0000c8          0x4 LONG 0x7fea DEFINED (__SPI3ErrInterrupt)?<code 339> (__SPI3ErrInterrupt):<code 339> (__DefaultInterrupt)
                  0x0000ca          0x4 LONG 0x7fea DEFINED (__SPI3Interrupt)?<code 339> (__SPI3Interrupt):<code 339> (__DefaultInterrupt)
                  0x0000cc          0x4 LONG 0x7fea DEFINED (__OC9Interrupt)?<code 339> (__OC9Interrupt):<code 339> (__DefaultInterrupt)
                  0x0000ce          0x4 LONG 0x7fea DEFINED (__IC9Interrupt)?<code 339> (__IC9Interrupt):<code 339> (__DefaultInterrupt)
                  0x0000d0          0x4 LONG 0x7fea DEFINED (__Interrupt94)?<code 339> (__Interrupt94):<code 339> (__DefaultInterrupt)
                  0x0000d2          0x4 LONG 0x7fea DEFINED (__Interrupt95)?<code 339> (__Interrupt95):<code 339> (__DefaultInterrupt)
                  0x0000d4          0x4 LONG 0x7fea DEFINED (__Interrupt96)?<code 339> (__Interrupt96):<code 339> (__DefaultInterrupt)
                  0x0000d6          0x4 LONG 0x7fea DEFINED (__Interrupt97)?<code 339> (__Interrupt97):<code 339> (__DefaultInterrupt)
                  0x0000d8          0x4 LONG 0x7fea DEFINED (__Interrupt98)?<code 339> (__Interrupt98):<code 339> (__DefaultInterrupt)
                  0x0000da          0x4 LONG 0x7fea DEFINED (__Interrupt99)?<code 339> (__Interrupt99):<code 339> (__DefaultInterrupt)
                  0x0000dc          0x4 LONG 0x7fea DEFINED (__Interrupt100)?<code 339> (__Interrupt100):<code 339> (__DefaultInterrupt)
                  0x0000de          0x4 LONG 0x7fea DEFINED (__Interrupt101)?<code 339> (__Interrupt101):<code 339> (__DefaultInterrupt)
                  0x0000e0          0x4 LONG 0x7fea DEFINED (__Interrupt102)?<code 339> (__Interrupt102):<code 339> (__DefaultInterrupt)
                  0x0000e2          0x4 LONG 0x7fea DEFINED (__Interrupt103)?<code 339> (__Interrupt103):<code 339> (__DefaultInterrupt)
                  0x0000e4          0x4 LONG 0x7fea DEFINED (__Interrupt104)?<code 339> (__Interrupt104):<code 339> (__DefaultInterrupt)
                  0x0000e6          0x4 LONG 0x7fea DEFINED (__Interrupt105)?<code 339> (__Interrupt105):<code 339> (__DefaultInterrupt)
                  0x0000e8          0x4 LONG 0x7fea DEFINED (__Interrupt106)?<code 339> (__Interrupt106):<code 339> (__DefaultInterrupt)
                  0x0000ea          0x4 LONG 0x7fea DEFINED (__Interrupt107)?<code 339> (__Interrupt107):<code 339> (__DefaultInterrupt)
                  0x0000ec          0x4 LONG 0x7fea DEFINED (__Interrupt108)?<code 339> (__Interrupt108):<code 339> (__DefaultInterrupt)
                  0x0000ee          0x4 LONG 0x7fea DEFINED (__Interrupt109)?<code 339> (__Interrupt109):<code 339> (__DefaultInterrupt)
                  0x0000f0          0x4 LONG 0x7fea DEFINED (__Interrupt110)?<code 339> (__Interrupt110):<code 339> (__DefaultInterrupt)
                  0x0000f2          0x4 LONG 0x7fea DEFINED (__Interrupt111)?<code 339> (__Interrupt111):<code 339> (__DefaultInterrupt)
                  0x0000f4          0x4 LONG 0x7fea DEFINED (__Interrupt112)?<code 339> (__Interrupt112):<code 339> (__DefaultInterrupt)
                  0x0000f6          0x4 LONG 0x7fea DEFINED (__Interrupt113)?<code 339> (__Interrupt113):<code 339> (__DefaultInterrupt)
                  0x0000f8          0x4 LONG 0x7fea DEFINED (__Interrupt114)?<code 339> (__Interrupt114):<code 339> (__DefaultInterrupt)
                  0x0000fa          0x4 LONG 0x7fea DEFINED (__Interrupt115)?<code 339> (__Interrupt115):<code 339> (__DefaultInterrupt)
                  0x0000fc          0x4 LONG 0x7fea DEFINED (__Interrupt116)?<code 339> (__Interrupt116):<code 339> (__DefaultInterrupt)
                  0x0000fe          0x4 LONG 0x7fea DEFINED (__Interrupt117)?<code 339> (__Interrupt117):<code 339> (__DefaultInterrupt)

.aivt             0x000104         0xfc
                  0x000104          0x4 LONG 0x7fea DEFINED (__AltReservedTrap0)?<code 339> (__AltReservedTrap0):DEFINED (__ReservedTrap0)?<code 339> (__ReservedTrap0):<code 339> (__DefaultInterrupt)
                  0x000106          0x4 LONG 0x7fea DEFINED (__AltOscillatorFail)?<code 339> (__AltOscillatorFail):DEFINED (__OscillatorFail)?<code 339> (__OscillatorFail):<code 339> (__DefaultInterrupt)
                  0x000108          0x4 LONG 0x7fea DEFINED (__AltAddressError)?<code 339> (__AltAddressError):DEFINED (__AddressError)?<code 339> (__AddressError):<code 339> (__DefaultInterrupt)
                  0x00010a          0x4 LONG 0x7fea DEFINED (__AltStackError)?<code 339> (__AltStackError):DEFINED (__StackError)?<code 339> (__StackError):<code 339> (__DefaultInterrupt)
                  0x00010c          0x4 LONG 0x7fea DEFINED (__AltMathError)?<code 339> (__AltMathError):DEFINED (__MathError)?<code 339> (__MathError):<code 339> (__DefaultInterrupt)
                  0x00010e          0x4 LONG 0x7fea DEFINED (__AltReservedTrap5)?<code 339> (__AltReservedTrap5):DEFINED (__ReservedTrap5)?<code 339> (__ReservedTrap5):<code 339> (__DefaultInterrupt)
                  0x000110          0x4 LONG 0x7fea DEFINED (__AltReservedTrap6)?<code 339> (__AltReservedTrap6):DEFINED (__ReservedTrap6)?<code 339> (__ReservedTrap6):<code 339> (__DefaultInterrupt)
                  0x000112          0x4 LONG 0x7fea DEFINED (__AltReservedTrap7)?<code 339> (__AltReservedTrap7):DEFINED (__ReservedTrap7)?<code 339> (__ReservedTrap7):<code 339> (__DefaultInterrupt)
                  0x000114          0x4 LONG 0x7fea DEFINED (__AltINT0Interrupt)?<code 339> (__AltINT0Interrupt):DEFINED (__INT0Interrupt)?<code 339> (__INT0Interrupt):<code 339> (__DefaultInterrupt)
                  0x000116          0x4 LONG 0x7fea DEFINED (__AltIC1Interrupt)?<code 339> (__AltIC1Interrupt):DEFINED (__IC1Interrupt)?<code 339> (__IC1Interrupt):<code 339> (__DefaultInterrupt)
                  0x000118          0x4 LONG 0x7fea DEFINED (__AltOC1Interrupt)?<code 339> (__AltOC1Interrupt):DEFINED (__OC1Interrupt)?<code 339> (__OC1Interrupt):<code 339> (__DefaultInterrupt)
                  0x00011a          0x4 LONG 0x27b92 DEFINED (__AltT1Interrupt)?<code 339> (__AltT1Interrupt):DEFINED (__T1Interrupt)?<code 339> (__T1Interrupt):<code 339> (__DefaultInterrupt)
                  0x00011c          0x4 LONG 0x7fea DEFINED (__AltInterrupt4)?<code 339> (__AltInterrupt4):DEFINED (__Interrupt4)?<code 339> (__Interrupt4):<code 339> (__DefaultInterrupt)
                  0x00011e          0x4 LONG 0x7fea DEFINED (__AltIC2Interrupt)?<code 339> (__AltIC2Interrupt):DEFINED (__IC2Interrupt)?<code 339> (__IC2Interrupt):<code 339> (__DefaultInterrupt)
                  0x000120          0x4 LONG 0x7fea DEFINED (__AltOC2Interrupt)?<code 339> (__AltOC2Interrupt):DEFINED (__OC2Interrupt)?<code 339> (__OC2Interrupt):<code 339> (__DefaultInterrupt)
                  0x000122          0x4 LONG 0x1ff94 DEFINED (__AltT2Interrupt)?<code 339> (__AltT2Interrupt):DEFINED (__T2Interrupt)?<code 339> (__T2Interrupt):<code 339> (__DefaultInterrupt)
                  0x000124          0x4 LONG 0x2632 DEFINED (__AltT3Interrupt)?<code 339> (__AltT3Interrupt):DEFINED (__T3Interrupt)?<code 339> (__T3Interrupt):<code 339> (__DefaultInterrupt)
                  0x000126          0x4 LONG 0x7fea DEFINED (__AltSPI1ErrInterrupt)?<code 339> (__AltSPI1ErrInterrupt):DEFINED (__SPI1ErrInterrupt)?<code 339> (__SPI1ErrInterrupt):<code 339> (__DefaultInterrupt)
                  0x000128          0x4 LONG 0x7fea DEFINED (__AltSPI1Interrupt)?<code 339> (__AltSPI1Interrupt):DEFINED (__SPI1Interrupt)?<code 339> (__SPI1Interrupt):<code 339> (__DefaultInterrupt)
                  0x00012a          0x4 LONG 0x2998 DEFINED (__AltU1RXInterrupt)?<code 339> (__AltU1RXInterrupt):DEFINED (__U1RXInterrupt)?<code 339> (__U1RXInterrupt):<code 339> (__DefaultInterrupt)
                  0x00012c          0x4 LONG 0x2964 DEFINED (__AltU1TXInterrupt)?<code 339> (__AltU1TXInterrupt):DEFINED (__U1TXInterrupt)?<code 339> (__U1TXInterrupt):<code 339> (__DefaultInterrupt)
                  0x00012e          0x4 LONG 0x7fea DEFINED (__AltADC1Interrupt)?<code 339> (__AltADC1Interrupt):DEFINED (__ADC1Interrupt)?<code 339> (__ADC1Interrupt):<code 339> (__DefaultInterrupt)
                  0x000130          0x4 LONG 0x7fea DEFINED (__AltInterrupt14)?<code 339> (__AltInterrupt14):DEFINED (__Interrupt14)?<code 339> (__Interrupt14):<code 339> (__DefaultInterrupt)
                  0x000132          0x4 LONG 0x7fea DEFINED (__AltInterrupt15)?<code 339> (__AltInterrupt15):DEFINED (__Interrupt15)?<code 339> (__Interrupt15):<code 339> (__DefaultInterrupt)
                  0x000134          0x4 LONG 0x7fea DEFINED (__AltSI2C1Interrupt)?<code 339> (__AltSI2C1Interrupt):DEFINED (__SI2C1Interrupt)?<code 339> (__SI2C1Interrupt):<code 339> (__DefaultInterrupt)
                  0x000136          0x4 LONG 0x7fea DEFINED (__AltMI2C1Interrupt)?<code 339> (__AltMI2C1Interrupt):DEFINED (__MI2C1Interrupt)?<code 339> (__MI2C1Interrupt):<code 339> (__DefaultInterrupt)
                  0x000138          0x4 LONG 0x7fea DEFINED (__AltCompInterrupt)?<code 339> (__AltCompInterrupt):DEFINED (__CompInterrupt)?<code 339> (__CompInterrupt):<code 339> (__DefaultInterrupt)
                  0x00013a          0x4 LONG 0x7fea DEFINED (__AltCNInterrupt)?<code 339> (__AltCNInterrupt):DEFINED (__CNInterrupt)?<code 339> (__CNInterrupt):<code 339> (__DefaultInterrupt)
                  0x00013c          0x4 LONG 0x7fea DEFINED (__AltINT1Interrupt)?<code 339> (__AltINT1Interrupt):DEFINED (__INT1Interrupt)?<code 339> (__INT1Interrupt):<code 339> (__DefaultInterrupt)
                  0x00013e          0x4 LONG 0x7fea DEFINED (__AltInterrupt21)?<code 339> (__AltInterrupt21):DEFINED (__Interrupt21)?<code 339> (__Interrupt21):<code 339> (__DefaultInterrupt)
                  0x000140          0x4 LONG 0x7fea DEFINED (__AltIC7Interrupt)?<code 339> (__AltIC7Interrupt):DEFINED (__IC7Interrupt)?<code 339> (__IC7Interrupt):<code 339> (__DefaultInterrupt)
                  0x000142          0x4 LONG 0x7fea DEFINED (__AltIC8Interrupt)?<code 339> (__AltIC8Interrupt):DEFINED (__IC8Interrupt)?<code 339> (__IC8Interrupt):<code 339> (__DefaultInterrupt)
                  0x000144          0x4 LONG 0x7fea DEFINED (__AltInterrupt24)?<code 339> (__AltInterrupt24):DEFINED (__Interrupt24)?<code 339> (__Interrupt24):<code 339> (__DefaultInterrupt)
                  0x000146          0x4 LONG 0x7fea DEFINED (__AltOC3Interrupt)?<code 339> (__AltOC3Interrupt):DEFINED (__OC3Interrupt)?<code 339> (__OC3Interrupt):<code 339> (__DefaultInterrupt)
                  0x000148          0x4 LONG 0x7fea DEFINED (__AltOC4Interrupt)?<code 339> (__AltOC4Interrupt):DEFINED (__OC4Interrupt)?<code 339> (__OC4Interrupt):<code 339> (__DefaultInterrupt)
                  0x00014a          0x4 LONG 0x24bec DEFINED (__AltT4Interrupt)?<code 339> (__AltT4Interrupt):DEFINED (__T4Interrupt)?<code 339> (__T4Interrupt):<code 339> (__DefaultInterrupt)
                  0x00014c          0x4 LONG 0x20c82 DEFINED (__AltT5Interrupt)?<code 339> (__AltT5Interrupt):DEFINED (__T5Interrupt)?<code 339> (__T5Interrupt):<code 339> (__DefaultInterrupt)
                  0x00014e          0x4 LONG 0x16dc DEFINED (__AltINT2Interrupt)?<code 339> (__AltINT2Interrupt):DEFINED (__INT2Interrupt)?<code 339> (__INT2Interrupt):<code 339> (__DefaultInterrupt)
                  0x000150          0x4 LONG 0x7fea DEFINED (__AltU2RXInterrupt)?<code 339> (__AltU2RXInterrupt):DEFINED (__U2RXInterrupt)?<code 339> (__U2RXInterrupt):<code 339> (__DefaultInterrupt)
                  0x000152          0x4 LONG 0x7fea DEFINED (__AltU2TXInterrupt)?<code 339> (__AltU2TXInterrupt):DEFINED (__U2TXInterrupt)?<code 339> (__U2TXInterrupt):<code 339> (__DefaultInterrupt)
                  0x000154          0x4 LONG 0x7fea DEFINED (__AltSPI2ErrInterrupt)?<code 339> (__AltSPI2ErrInterrupt):DEFINED (__SPI2ErrInterrupt)?<code 339> (__SPI2ErrInterrupt):<code 339> (__DefaultInterrupt)
                  0x000156          0x4 LONG 0x7fea DEFINED (__AltSPI2Interrupt)?<code 339> (__AltSPI2Interrupt):DEFINED (__SPI2Interrupt)?<code 339> (__SPI2Interrupt):<code 339> (__DefaultInterrupt)
                  0x000158          0x4 LONG 0x7fea DEFINED (__AltInterrupt34)?<code 339> (__AltInterrupt34):DEFINED (__Interrupt34)?<code 339> (__Interrupt34):<code 339> (__DefaultInterrupt)
                  0x00015a          0x4 LONG 0x7fea DEFINED (__AltInterrupt35)?<code 339> (__AltInterrupt35):DEFINED (__Interrupt35)?<code 339> (__Interrupt35):<code 339> (__DefaultInterrupt)
                  0x00015c          0x4 LONG 0x7fea DEFINED (__AltInterrupt36)?<code 339> (__AltInterrupt36):DEFINED (__Interrupt36)?<code 339> (__Interrupt36):<code 339> (__DefaultInterrupt)
                  0x00015e          0x4 LONG 0x7fea DEFINED (__AltIC3Interrupt)?<code 339> (__AltIC3Interrupt):DEFINED (__IC3Interrupt)?<code 339> (__IC3Interrupt):<code 339> (__DefaultInterrupt)
                  0x000160          0x4 LONG 0x7fea DEFINED (__AltIC4Interrupt)?<code 339> (__AltIC4Interrupt):DEFINED (__IC4Interrupt)?<code 339> (__IC4Interrupt):<code 339> (__DefaultInterrupt)
                  0x000162          0x4 LONG 0x7fea DEFINED (__AltIC5Interrupt)?<code 339> (__AltIC5Interrupt):DEFINED (__IC5Interrupt)?<code 339> (__IC5Interrupt):<code 339> (__DefaultInterrupt)
                  0x000164          0x4 LONG 0x7fea DEFINED (__AltIC6Interrupt)?<code 339> (__AltIC6Interrupt):DEFINED (__IC6Interrupt)?<code 339> (__IC6Interrupt):<code 339> (__DefaultInterrupt)
                  0x000166          0x4 LONG 0x7fea DEFINED (__AltOC5Interrupt)?<code 339> (__AltOC5Interrupt):DEFINED (__OC5Interrupt)?<code 339> (__OC5Interrupt):<code 339> (__DefaultInterrupt)
                  0x000168          0x4 LONG 0x7fea DEFINED (__AltOC6Interrupt)?<code 339> (__AltOC6Interrupt):DEFINED (__OC6Interrupt)?<code 339> (__OC6Interrupt):<code 339> (__DefaultInterrupt)
                  0x00016a          0x4 LONG 0x7fea DEFINED (__AltOC7Interrupt)?<code 339> (__AltOC7Interrupt):DEFINED (__OC7Interrupt)?<code 339> (__OC7Interrupt):<code 339> (__DefaultInterrupt)
                  0x00016c          0x4 LONG 0x7fea DEFINED (__AltOC8Interrupt)?<code 339> (__AltOC8Interrupt):DEFINED (__OC8Interrupt)?<code 339> (__OC8Interrupt):<code 339> (__DefaultInterrupt)
                  0x00016e          0x4 LONG 0x7fea DEFINED (__AltPMPInterrupt)?<code 339> (__AltPMPInterrupt):DEFINED (__PMPInterrupt)?<code 339> (__PMPInterrupt):<code 339> (__DefaultInterrupt)
                  0x000170          0x4 LONG 0x7fea DEFINED (__AltInterrupt46)?<code 339> (__AltInterrupt46):DEFINED (__Interrupt46)?<code 339> (__Interrupt46):<code 339> (__DefaultInterrupt)
                  0x000172          0x4 LONG 0x7fea DEFINED (__AltInterrupt47)?<code 339> (__AltInterrupt47):DEFINED (__Interrupt47)?<code 339> (__Interrupt47):<code 339> (__DefaultInterrupt)
                  0x000174          0x4 LONG 0x7fea DEFINED (__AltInterrupt48)?<code 339> (__AltInterrupt48):DEFINED (__Interrupt48)?<code 339> (__Interrupt48):<code 339> (__DefaultInterrupt)
                  0x000176          0x4 LONG 0x7fea DEFINED (__AltSI2C2Interrupt)?<code 339> (__AltSI2C2Interrupt):DEFINED (__SI2C2Interrupt)?<code 339> (__SI2C2Interrupt):<code 339> (__DefaultInterrupt)
                  0x000178          0x4 LONG 0x7fea DEFINED (__AltMI2C2Interrupt)?<code 339> (__AltMI2C2Interrupt):DEFINED (__MI2C2Interrupt)?<code 339> (__MI2C2Interrupt):<code 339> (__DefaultInterrupt)
                  0x00017a          0x4 LONG 0x7fea DEFINED (__AltInterrupt51)?<code 339> (__AltInterrupt51):DEFINED (__Interrupt51)?<code 339> (__Interrupt51):<code 339> (__DefaultInterrupt)
                  0x00017c          0x4 LONG 0x7fea DEFINED (__AltInterrupt52)?<code 339> (__AltInterrupt52):DEFINED (__Interrupt52)?<code 339> (__Interrupt52):<code 339> (__DefaultInterrupt)
                  0x00017e          0x4 LONG 0x7fea DEFINED (__AltINT3Interrupt)?<code 339> (__AltINT3Interrupt):DEFINED (__INT3Interrupt)?<code 339> (__INT3Interrupt):<code 339> (__DefaultInterrupt)
                  0x000180          0x4 LONG 0x7fea DEFINED (__AltINT4Interrupt)?<code 339> (__AltINT4Interrupt):DEFINED (__INT4Interrupt)?<code 339> (__INT4Interrupt):<code 339> (__DefaultInterrupt)
                  0x000182          0x4 LONG 0x7fea DEFINED (__AltInterrupt55)?<code 339> (__AltInterrupt55):DEFINED (__Interrupt55)?<code 339> (__Interrupt55):<code 339> (__DefaultInterrupt)
                  0x000184          0x4 LONG 0x7fea DEFINED (__AltInterrupt56)?<code 339> (__AltInterrupt56):DEFINED (__Interrupt56)?<code 339> (__Interrupt56):<code 339> (__DefaultInterrupt)
                  0x000186          0x4 LONG 0x7fea DEFINED (__AltInterrupt57)?<code 339> (__AltInterrupt57):DEFINED (__Interrupt57)?<code 339> (__Interrupt57):<code 339> (__DefaultInterrupt)
                  0x000188          0x4 LONG 0x7fea DEFINED (__AltInterrupt58)?<code 339> (__AltInterrupt58):DEFINED (__Interrupt58)?<code 339> (__Interrupt58):<code 339> (__DefaultInterrupt)
                  0x00018a          0x4 LONG 0x7fea DEFINED (__AltInterrupt59)?<code 339> (__AltInterrupt59):DEFINED (__Interrupt59)?<code 339> (__Interrupt59):<code 339> (__DefaultInterrupt)
                  0x00018c          0x4 LONG 0x7fea DEFINED (__AltInterrupt60)?<code 339> (__AltInterrupt60):DEFINED (__Interrupt60)?<code 339> (__Interrupt60):<code 339> (__DefaultInterrupt)
                  0x00018e          0x4 LONG 0x7fea DEFINED (__AltInterrupt61)?<code 339> (__AltInterrupt61):DEFINED (__Interrupt61)?<code 339> (__Interrupt61):<code 339> (__DefaultInterrupt)
                  0x000190          0x4 LONG 0x7fea DEFINED (__AltRTCCInterrupt)?<code 339> (__AltRTCCInterrupt):DEFINED (__RTCCInterrupt)?<code 339> (__RTCCInterrupt):<code 339> (__DefaultInterrupt)
                  0x000192          0x4 LONG 0x7fea DEFINED (__AltInterrupt63)?<code 339> (__AltInterrupt63):DEFINED (__Interrupt63)?<code 339> (__Interrupt63):<code 339> (__DefaultInterrupt)
                  0x000194          0x4 LONG 0x7fea DEFINED (__AltInterrupt64)?<code 339> (__AltInterrupt64):DEFINED (__Interrupt64)?<code 339> (__Interrupt64):<code 339> (__DefaultInterrupt)
                  0x000196          0x4 LONG 0x7fea DEFINED (__AltU1ErrInterrupt)?<code 339> (__AltU1ErrInterrupt):DEFINED (__U1ErrInterrupt)?<code 339> (__U1ErrInterrupt):<code 339> (__DefaultInterrupt)
                  0x000198          0x4 LONG 0x7fea DEFINED (__AltU2ErrInterrupt)?<code 339> (__AltU2ErrInterrupt):DEFINED (__U2ErrInterrupt)?<code 339> (__U2ErrInterrupt):<code 339> (__DefaultInterrupt)
                  0x00019a          0x4 LONG 0x7fea DEFINED (__AltCRCInterrupt)?<code 339> (__AltCRCInterrupt):DEFINED (__CRCInterrupt)?<code 339> (__CRCInterrupt):<code 339> (__DefaultInterrupt)
                  0x00019c          0x4 LONG 0x7fea DEFINED (__AltInterrupt68)?<code 339> (__AltInterrupt68):DEFINED (__Interrupt68)?<code 339> (__Interrupt68):<code 339> (__DefaultInterrupt)
                  0x00019e          0x4 LONG 0x7fea DEFINED (__AltInterrupt69)?<code 339> (__AltInterrupt69):DEFINED (__Interrupt69)?<code 339> (__Interrupt69):<code 339> (__DefaultInterrupt)
                  0x0001a0          0x4 LONG 0x7fea DEFINED (__AltInterrupt70)?<code 339> (__AltInterrupt70):DEFINED (__Interrupt70)?<code 339> (__Interrupt70):<code 339> (__DefaultInterrupt)
                  0x0001a2          0x4 LONG 0x7fea DEFINED (__AltInterrupt71)?<code 339> (__AltInterrupt71):DEFINED (__Interrupt71)?<code 339> (__Interrupt71):<code 339> (__DefaultInterrupt)
                  0x0001a4          0x4 LONG 0x7fea DEFINED (__AltLVDInterrupt)?<code 339> (__AltLVDInterrupt):DEFINED (__LVDInterrupt)?<code 339> (__LVDInterrupt):<code 339> (__DefaultInterrupt)
                  0x0001a6          0x4 LONG 0x7fea DEFINED (__AltInterrupt73)?<code 339> (__AltInterrupt73):DEFINED (__Interrupt73)?<code 339> (__Interrupt73):<code 339> (__DefaultInterrupt)
                  0x0001a8          0x4 LONG 0x7fea DEFINED (__AltInterrupt74)?<code 339> (__AltInterrupt74):DEFINED (__Interrupt74)?<code 339> (__Interrupt74):<code 339> (__DefaultInterrupt)
                  0x0001aa          0x4 LONG 0x7fea DEFINED (__AltInterrupt75)?<code 339> (__AltInterrupt75):DEFINED (__Interrupt75)?<code 339> (__Interrupt75):<code 339> (__DefaultInterrupt)
                  0x0001ac          0x4 LONG 0x7fea DEFINED (__AltInterrupt76)?<code 339> (__AltInterrupt76):DEFINED (__Interrupt76)?<code 339> (__Interrupt76):<code 339> (__DefaultInterrupt)
                  0x0001ae          0x4 LONG 0x7fea DEFINED (__AltCTMUInterrupt)?<code 339> (__AltCTMUInterrupt):DEFINED (__CTMUInterrupt)?<code 339> (__CTMUInterrupt):<code 339> (__DefaultInterrupt)
                  0x0001b0          0x4 LONG 0x7fea DEFINED (__AltInterrupt78)?<code 339> (__AltInterrupt78):DEFINED (__Interrupt78)?<code 339> (__Interrupt78):<code 339> (__DefaultInterrupt)
                  0x0001b2          0x4 LONG 0x7fea DEFINED (__AltInterrupt79)?<code 339> (__AltInterrupt79):DEFINED (__Interrupt79)?<code 339> (__Interrupt79):<code 339> (__DefaultInterrupt)
                  0x0001b4          0x4 LONG 0x7fea DEFINED (__AltInterrupt80)?<code 339> (__AltInterrupt80):DEFINED (__Interrupt80)?<code 339> (__Interrupt80):<code 339> (__DefaultInterrupt)
                  0x0001b6          0x4 LONG 0x7fea DEFINED (__AltU3ErrInterrupt)?<code 339> (__AltU3ErrInterrupt):DEFINED (__U3ErrInterrupt)?<code 339> (__U3ErrInterrupt):<code 339> (__DefaultInterrupt)
                  0x0001b8          0x4 LONG 0x7fea DEFINED (__AltU3RXInterrupt)?<code 339> (__AltU3RXInterrupt):DEFINED (__U3RXInterrupt)?<code 339> (__U3RXInterrupt):<code 339> (__DefaultInterrupt)
                  0x0001ba          0x4 LONG 0x7fea DEFINED (__AltU3TXInterrupt)?<code 339> (__AltU3TXInterrupt):DEFINED (__U3TXInterrupt)?<code 339> (__U3TXInterrupt):<code 339> (__DefaultInterrupt)
                  0x0001bc          0x4 LONG 0x7fea DEFINED (__AltSI2C3Interrupt)?<code 339> (__AltSI2C3Interrupt):DEFINED (__SI2C3Interrupt)?<code 339> (__SI2C3Interrupt):<code 339> (__DefaultInterrupt)
                  0x0001be          0x4 LONG 0x7fea DEFINED (__AltMI2C3Interrupt)?<code 339> (__AltMI2C3Interrupt):DEFINED (__MI2C3Interrupt)?<code 339> (__MI2C3Interrupt):<code 339> (__DefaultInterrupt)
                  0x0001c0          0x4 LONG 0x25c0a DEFINED (__AltUSB1Interrupt)?<code 339> (__AltUSB1Interrupt):DEFINED (__USB1Interrupt)?<code 339> (__USB1Interrupt):<code 339> (__DefaultInterrupt)
                  0x0001c2          0x4 LONG 0x7fea DEFINED (__AltU4ErrInterrupt)?<code 339> (__AltU4ErrInterrupt):DEFINED (__U4ErrInterrupt)?<code 339> (__U4ErrInterrupt):<code 339> (__DefaultInterrupt)
                  0x0001c4          0x4 LONG 0x27be0 DEFINED (__AltU4RXInterrupt)?<code 339> (__AltU4RXInterrupt):DEFINED (__U4RXInterrupt)?<code 339> (__U4RXInterrupt):<code 339> (__DefaultInterrupt)
                  0x0001c6          0x4 LONG 0x27bb6 DEFINED (__AltU4TXInterrupt)?<code 339> (__AltU4TXInterrupt):DEFINED (__U4TXInterrupt)?<code 339> (__U4TXInterrupt):<code 339> (__DefaultInterrupt)
                  0x0001c8          0x4 LONG 0x7fea DEFINED (__AltSPI3ErrInterrupt)?<code 339> (__AltSPI3ErrInterrupt):DEFINED (__SPI3ErrInterrupt)?<code 339> (__SPI3ErrInterrupt):<code 339> (__DefaultInterrupt)
                  0x0001ca          0x4 LONG 0x7fea DEFINED (__AltSPI3Interrupt)?<code 339> (__AltSPI3Interrupt):DEFINED (__SPI3Interrupt)?<code 339> (__SPI3Interrupt):<code 339> (__DefaultInterrupt)
                  0x0001cc          0x4 LONG 0x7fea DEFINED (__AltOC9Interrupt)?<code 339> (__AltOC9Interrupt):DEFINED (__OC9Interrupt)?<code 339> (__OC9Interrupt):<code 339> (__DefaultInterrupt)
                  0x0001ce          0x4 LONG 0x7fea DEFINED (__AltIC9Interrupt)?<code 339> (__AltIC9Interrupt):DEFINED (__IC9Interrupt)?<code 339> (__IC9Interrupt):<code 339> (__DefaultInterrupt)
                  0x0001d0          0x4 LONG 0x7fea DEFINED (__AltInterrupt94)?<code 339> (__AltInterrupt94):DEFINED (__Interrupt94)?<code 339> (__Interrupt94):<code 339> (__DefaultInterrupt)
                  0x0001d2          0x4 LONG 0x7fea DEFINED (__AltInterrupt95)?<code 339> (__AltInterrupt95):DEFINED (__Interrupt95)?<code 339> (__Interrupt95):<code 339> (__DefaultInterrupt)
                  0x0001d4          0x4 LONG 0x7fea DEFINED (__AltInterrupt96)?<code 339> (__AltInterrupt96):DEFINED (__Interrupt96)?<code 339> (__Interrupt96):<code 339> (__DefaultInterrupt)
                  0x0001d6          0x4 LONG 0x7fea DEFINED (__AltInterrupt97)?<code 339> (__AltInterrupt97):DEFINED (__Interrupt97)?<code 339> (__Interrupt97):<code 339> (__DefaultInterrupt)
                  0x0001d8          0x4 LONG 0x7fea DEFINED (__AltInterrupt98)?<code 339> (__AltInterrupt98):DEFINED (__Interrupt98)?<code 339> (__Interrupt98):<code 339> (__DefaultInterrupt)
                  0x0001da          0x4 LONG 0x7fea DEFINED (__AltInterrupt99)?<code 339> (__AltInterrupt99):DEFINED (__Interrupt99)?<code 339> (__Interrupt99):<code 339> (__DefaultInterrupt)
                  0x0001dc          0x4 LONG 0x7fea DEFINED (__AltInterrupt100)?<code 339> (__AltInterrupt100):DEFINED (__Interrupt100)?<code 339> (__Interrupt100):<code 339> (__DefaultInterrupt)
                  0x0001de          0x4 LONG 0x7fea DEFINED (__AltInterrupt101)?<code 339> (__AltInterrupt101):DEFINED (__Interrupt101)?<code 339> (__Interrupt101):<code 339> (__DefaultInterrupt)
                  0x0001e0          0x4 LONG 0x7fea DEFINED (__AltInterrupt102)?<code 339> (__AltInterrupt102):DEFINED (__Interrupt102)?<code 339> (__Interrupt102):<code 339> (__DefaultInterrupt)
                  0x0001e2          0x4 LONG 0x7fea DEFINED (__AltInterrupt103)?<code 339> (__AltInterrupt103):DEFINED (__Interrupt103)?<code 339> (__Interrupt103):<code 339> (__DefaultInterrupt)
                  0x0001e4          0x4 LONG 0x7fea DEFINED (__AltInterrupt104)?<code 339> (__AltInterrupt104):DEFINED (__Interrupt104)?<code 339> (__Interrupt104):<code 339> (__DefaultInterrupt)
                  0x0001e6          0x4 LONG 0x7fea DEFINED (__AltInterrupt105)?<code 339> (__AltInterrupt105):DEFINED (__Interrupt105)?<code 339> (__Interrupt105):<code 339> (__DefaultInterrupt)
                  0x0001e8          0x4 LONG 0x7fea DEFINED (__AltInterrupt106)?<code 339> (__AltInterrupt106):DEFINED (__Interrupt106)?<code 339> (__Interrupt106):<code 339> (__DefaultInterrupt)
                  0x0001ea          0x4 LONG 0x7fea DEFINED (__AltInterrupt107)?<code 339> (__AltInterrupt107):DEFINED (__Interrupt107)?<code 339> (__Interrupt107):<code 339> (__DefaultInterrupt)
                  0x0001ec          0x4 LONG 0x7fea DEFINED (__AltInterrupt108)?<code 339> (__AltInterrupt108):DEFINED (__Interrupt108)?<code 339> (__Interrupt108):<code 339> (__DefaultInterrupt)
                  0x0001ee          0x4 LONG 0x7fea DEFINED (__AltInterrupt109)?<code 339> (__AltInterrupt109):DEFINED (__Interrupt109)?<code 339> (__Interrupt109):<code 339> (__DefaultInterrupt)
                  0x0001f0          0x4 LONG 0x7fea DEFINED (__AltInterrupt110)?<code 339> (__AltInterrupt110):DEFINED (__Interrupt110)?<code 339> (__Interrupt110):<code 339> (__DefaultInterrupt)
                  0x0001f2          0x4 LONG 0x7fea DEFINED (__AltInterrupt111)?<code 339> (__AltInterrupt111):DEFINED (__Interrupt111)?<code 339> (__Interrupt111):<code 339> (__DefaultInterrupt)
                  0x0001f4          0x4 LONG 0x7fea DEFINED (__AltInterrupt112)?<code 339> (__AltInterrupt112):DEFINED (__Interrupt112)?<code 339> (__Interrupt112):<code 339> (__DefaultInterrupt)
                  0x0001f6          0x4 LONG 0x7fea DEFINED (__AltInterrupt113)?<code 339> (__AltInterrupt113):DEFINED (__Interrupt113)?<code 339> (__Interrupt113):<code 339> (__DefaultInterrupt)
                  0x0001f8          0x4 LONG 0x7fea DEFINED (__AltInterrupt114)?<code 339> (__AltInterrupt114):DEFINED (__Interrupt114)?<code 339> (__Interrupt114):<code 339> (__DefaultInterrupt)
                  0x0001fa          0x4 LONG 0x7fea DEFINED (__AltInterrupt115)?<code 339> (__AltInterrupt115):DEFINED (__Interrupt115)?<code 339> (__Interrupt115):<code 339> (__DefaultInterrupt)
                  0x0001fc          0x4 LONG 0x7fea DEFINED (__AltInterrupt116)?<code 339> (__AltInterrupt116):DEFINED (__Interrupt116)?<code 339> (__Interrupt116):<code 339> (__DefaultInterrupt)
                  0x0001fe          0x4 LONG 0x7fea DEFINED (__AltInterrupt117)?<code 339> (__AltInterrupt117):DEFINED (__Interrupt117)?<code 339> (__Interrupt117):<code 339> (__DefaultInterrupt)
                    0x0000                  WREG0 = 0x0
                    0x0000                  _WREG0 = 0x0
                    0x0002                  WREG1 = 0x2
                    0x0002                  _WREG1 = 0x2
                    0x0004                  WREG2 = 0x4
                    0x0004                  _WREG2 = 0x4
                    0x0006                  WREG3 = 0x6
                    0x0006                  _WREG3 = 0x6
                    0x0008                  WREG4 = 0x8
                    0x0008                  _WREG4 = 0x8
                    0x000a                  WREG5 = 0xa
                    0x000a                  _WREG5 = 0xa
                    0x000c                  WREG6 = 0xc
                    0x000c                  _WREG6 = 0xc
                    0x000e                  WREG7 = 0xe
                    0x000e                  _WREG7 = 0xe
                    0x0010                  WREG8 = 0x10
                    0x0010                  _WREG8 = 0x10
                    0x0012                  WREG9 = 0x12
                    0x0012                  _WREG9 = 0x12
                    0x0014                  WREG10 = 0x14
                    0x0014                  _WREG10 = 0x14
                    0x0016                  WREG11 = 0x16
                    0x0016                  _WREG11 = 0x16
                    0x0018                  WREG12 = 0x18
                    0x0018                  _WREG12 = 0x18
                    0x001a                  WREG13 = 0x1a
                    0x001a                  _WREG13 = 0x1a
                    0x001c                  WREG14 = 0x1c
                    0x001c                  _WREG14 = 0x1c
                    0x001e                  WREG15 = 0x1e
                    0x001e                  _WREG15 = 0x1e
                    0x0020                  SPLIM = 0x20
                    0x0020                  _SPLIM = 0x20
                    0x002e                  PCL = 0x2e
                    0x002e                  _PCL = 0x2e
                    0x0030                  PCH = 0x30
                    0x0030                  _PCH = 0x30
                    0x0032                  TBLPAG = 0x32
                    0x0032                  _TBLPAG = 0x32
                    0x0034                  PSVPAG = 0x34
                    0x0034                  _PSVPAG = 0x34
                    0x0036                  RCOUNT = 0x36
                    0x0036                  _RCOUNT = 0x36
                    0x0042                  SR = 0x42
                    0x0042                  _SR = 0x42
                    0x0042                  _SRbits = 0x42
                    0x0044                  CORCON = 0x44
                    0x0044                  _CORCON = 0x44
                    0x0044                  _CORCONbits = 0x44
                    0x0052                  DISICNT = 0x52
                    0x0052                  _DISICNT = 0x52
                    0x0054                  CNPD1 = 0x54
                    0x0054                  _CNPD1 = 0x54
                    0x0054                  _CNPD1bits = 0x54
                    0x0056                  CNPD2 = 0x56
                    0x0056                  _CNPD2 = 0x56
                    0x0056                  _CNPD2bits = 0x56
                    0x0058                  CNPD3 = 0x58
                    0x0058                  _CNPD3 = 0x58
                    0x0058                  _CNPD3bits = 0x58
                    0x005a                  CNPD4 = 0x5a
                    0x005a                  _CNPD4 = 0x5a
                    0x005a                  _CNPD4bits = 0x5a
                    0x005c                  CNPD5 = 0x5c
                    0x005c                  _CNPD5 = 0x5c
                    0x005c                  _CNPD5bits = 0x5c
                    0x005e                  CNPD6 = 0x5e
                    0x005e                  _CNPD6 = 0x5e
                    0x005e                  _CNPD6bits = 0x5e
                    0x0060                  CNEN1 = 0x60
                    0x0060                  _CNEN1 = 0x60
                    0x0060                  _CNEN1bits = 0x60
                    0x0062                  CNEN2 = 0x62
                    0x0062                  _CNEN2 = 0x62
                    0x0062                  _CNEN2bits = 0x62
                    0x0064                  CNEN3 = 0x64
                    0x0064                  _CNEN3 = 0x64
                    0x0064                  _CNEN3bits = 0x64
                    0x0066                  CNEN4 = 0x66
                    0x0066                  _CNEN4 = 0x66
                    0x0066                  _CNEN4bits = 0x66
                    0x0068                  CNEN5 = 0x68
                    0x0068                  _CNEN5 = 0x68
                    0x0068                  _CNEN5bits = 0x68
                    0x006a                  CNEN6 = 0x6a
                    0x006a                  _CNEN6 = 0x6a
                    0x006a                  _CNEN6bits = 0x6a
                    0x006c                  CNPU1 = 0x6c
                    0x006c                  _CNPU1 = 0x6c
                    0x006c                  _CNPU1bits = 0x6c
                    0x006e                  CNPU2 = 0x6e
                    0x006e                  _CNPU2 = 0x6e
                    0x006e                  _CNPU2bits = 0x6e
                    0x0070                  CNPU3 = 0x70
                    0x0070                  _CNPU3 = 0x70
                    0x0070                  _CNPU3bits = 0x70
                    0x0072                  CNPU4 = 0x72
                    0x0072                  _CNPU4 = 0x72
                    0x0072                  _CNPU4bits = 0x72
                    0x0074                  CNPU5 = 0x74
                    0x0074                  _CNPU5 = 0x74
                    0x0074                  _CNPU5bits = 0x74
                    0x0076                  CNPU6 = 0x76
                    0x0076                  _CNPU6 = 0x76
                    0x0076                  _CNPU6bits = 0x76
                    0x0080                  INTCON1 = 0x80
                    0x0080                  _INTCON1 = 0x80
                    0x0080                  _INTCON1bits = 0x80
                    0x0082                  INTCON2 = 0x82
                    0x0082                  _INTCON2 = 0x82
                    0x0082                  _INTCON2bits = 0x82
                    0x0084                  IFS0 = 0x84
                    0x0084                  _IFS0 = 0x84
                    0x0084                  _IFS0bits = 0x84
                    0x0086                  IFS1 = 0x86
                    0x0086                  _IFS1 = 0x86
                    0x0086                  _IFS1bits = 0x86
                    0x0088                  IFS2 = 0x88
                    0x0088                  _IFS2 = 0x88
                    0x0088                  _IFS2bits = 0x88
                    0x008a                  IFS3 = 0x8a
                    0x008a                  _IFS3 = 0x8a
                    0x008a                  _IFS3bits = 0x8a
                    0x008c                  IFS4 = 0x8c
                    0x008c                  _IFS4 = 0x8c
                    0x008c                  _IFS4bits = 0x8c
                    0x008e                  IFS5 = 0x8e
                    0x008e                  _IFS5 = 0x8e
                    0x008e                  _IFS5bits = 0x8e
                    0x0094                  IEC0 = 0x94
                    0x0094                  _IEC0 = 0x94
                    0x0094                  _IEC0bits = 0x94
                    0x0096                  IEC1 = 0x96
                    0x0096                  _IEC1 = 0x96
                    0x0096                  _IEC1bits = 0x96
                    0x0098                  IEC2 = 0x98
                    0x0098                  _IEC2 = 0x98
                    0x0098                  _IEC2bits = 0x98
                    0x009a                  IEC3 = 0x9a
                    0x009a                  _IEC3 = 0x9a
                    0x009a                  _IEC3bits = 0x9a
                    0x009c                  IEC4 = 0x9c
                    0x009c                  _IEC4 = 0x9c
                    0x009c                  _IEC4bits = 0x9c
                    0x009e                  IEC5 = 0x9e
                    0x009e                  _IEC5 = 0x9e
                    0x009e                  _IEC5bits = 0x9e
                    0x00a4                  IPC0 = 0xa4
                    0x00a4                  _IPC0 = 0xa4
                    0x00a4                  _IPC0bits = 0xa4
                    0x00a6                  IPC1 = 0xa6
                    0x00a6                  _IPC1 = 0xa6
                    0x00a6                  _IPC1bits = 0xa6
                    0x00a8                  IPC2 = 0xa8
                    0x00a8                  _IPC2 = 0xa8
                    0x00a8                  _IPC2bits = 0xa8
                    0x00aa                  IPC3 = 0xaa
                    0x00aa                  _IPC3 = 0xaa
                    0x00aa                  _IPC3bits = 0xaa
                    0x00ac                  IPC4 = 0xac
                    0x00ac                  _IPC4 = 0xac
                    0x00ac                  _IPC4bits = 0xac
                    0x00ae                  IPC5 = 0xae
                    0x00ae                  _IPC5 = 0xae
                    0x00ae                  _IPC5bits = 0xae
                    0x00b0                  IPC6 = 0xb0
                    0x00b0                  _IPC6 = 0xb0
                    0x00b0                  _IPC6bits = 0xb0
                    0x00b2                  IPC7 = 0xb2
                    0x00b2                  _IPC7 = 0xb2
                    0x00b2                  _IPC7bits = 0xb2
                    0x00b4                  IPC8 = 0xb4
                    0x00b4                  _IPC8 = 0xb4
                    0x00b4                  _IPC8bits = 0xb4
                    0x00b6                  IPC9 = 0xb6
                    0x00b6                  _IPC9 = 0xb6
                    0x00b6                  _IPC9bits = 0xb6
                    0x00b8                  IPC10 = 0xb8
                    0x00b8                  _IPC10 = 0xb8
                    0x00b8                  _IPC10bits = 0xb8
                    0x00ba                  IPC11 = 0xba
                    0x00ba                  _IPC11 = 0xba
                    0x00ba                  _IPC11bits = 0xba
                    0x00bc                  IPC12 = 0xbc
                    0x00bc                  _IPC12 = 0xbc
                    0x00bc                  _IPC12bits = 0xbc
                    0x00be                  IPC13 = 0xbe
                    0x00be                  _IPC13 = 0xbe
                    0x00be                  _IPC13bits = 0xbe
                    0x00c2                  IPC15 = 0xc2
                    0x00c2                  _IPC15 = 0xc2
                    0x00c2                  _IPC15bits = 0xc2
                    0x00c4                  IPC16 = 0xc4
                    0x00c4                  _IPC16 = 0xc4
                    0x00c4                  _IPC16bits = 0xc4
                    0x00c8                  IPC18 = 0xc8
                    0x00c8                  _IPC18 = 0xc8
                    0x00c8                  _IPC18bits = 0xc8
                    0x00ca                  IPC19 = 0xca
                    0x00ca                  _IPC19 = 0xca
                    0x00ca                  _IPC19bits = 0xca
                    0x00cc                  IPC20 = 0xcc
                    0x00cc                  _IPC20 = 0xcc
                    0x00cc                  _IPC20bits = 0xcc
                    0x00ce                  IPC21 = 0xce
                    0x00ce                  _IPC21 = 0xce
                    0x00ce                  _IPC21bits = 0xce
                    0x00d0                  IPC22 = 0xd0
                    0x00d0                  _IPC22 = 0xd0
                    0x00d0                  _IPC22bits = 0xd0
                    0x00d2                  IPC23 = 0xd2
                    0x00d2                  _IPC23 = 0xd2
                    0x00d2                  _IPC23bits = 0xd2
                    0x0100                  TMR1 = 0x100
                    0x0100                  _TMR1 = 0x100
                    0x0102                  PR1 = 0x102
                    0x0102                  _PR1 = 0x102
                    0x0104                  T1CON = 0x104
                    0x0104                  _T1CON = 0x104
                    0x0104                  _T1CONbits = 0x104
                    0x0106                  TMR2 = 0x106
                    0x0106                  _TMR2 = 0x106
                    0x0108                  TMR3HLD = 0x108
                    0x0108                  _TMR3HLD = 0x108
                    0x010a                  TMR3 = 0x10a
                    0x010a                  _TMR3 = 0x10a
                    0x010c                  PR2 = 0x10c
                    0x010c                  _PR2 = 0x10c
                    0x010e                  PR3 = 0x10e
                    0x010e                  _PR3 = 0x10e
                    0x0110                  T2CON = 0x110
                    0x0110                  _T2CON = 0x110
                    0x0110                  _T2CONbits = 0x110
                    0x0112                  T3CON = 0x112
                    0x0112                  _T3CON = 0x112
                    0x0112                  _T3CONbits = 0x112
                    0x0114                  TMR4 = 0x114
                    0x0114                  _TMR4 = 0x114
                    0x0116                  TMR5HLD = 0x116
                    0x0116                  _TMR5HLD = 0x116
                    0x0118                  TMR5 = 0x118
                    0x0118                  _TMR5 = 0x118
                    0x011a                  PR4 = 0x11a
                    0x011a                  _PR4 = 0x11a
                    0x011c                  PR5 = 0x11c
                    0x011c                  _PR5 = 0x11c
                    0x011e                  T4CON = 0x11e
                    0x011e                  _T4CON = 0x11e
                    0x011e                  _T4CONbits = 0x11e
                    0x0120                  T5CON = 0x120
                    0x0120                  _T5CON = 0x120
                    0x0120                  _T5CONbits = 0x120
                    0x0140                  IC1CON1 = 0x140
                    0x0140                  _IC1CON1 = 0x140
                    0x0140                  _IC1CON1bits = 0x140
                    0x0142                  IC1CON2 = 0x142
                    0x0142                  _IC1CON2 = 0x142
                    0x0142                  _IC1CON2bits = 0x142
                    0x0144                  IC1BUF = 0x144
                    0x0144                  _IC1BUF = 0x144
                    0x0146                  IC1TMR = 0x146
                    0x0146                  _IC1TMR = 0x146
                    0x0148                  IC2CON1 = 0x148
                    0x0148                  _IC2CON1 = 0x148
                    0x0148                  _IC2CON1bits = 0x148
                    0x014a                  IC2CON2 = 0x14a
                    0x014a                  _IC2CON2 = 0x14a
                    0x014a                  _IC2CON2bits = 0x14a
                    0x014c                  IC2BUF = 0x14c
                    0x014c                  _IC2BUF = 0x14c
                    0x014e                  IC2TMR = 0x14e
                    0x014e                  _IC2TMR = 0x14e
                    0x0150                  IC3CON1 = 0x150
                    0x0150                  _IC3CON1 = 0x150
                    0x0150                  _IC3CON1bits = 0x150
                    0x0152                  IC3CON2 = 0x152
                    0x0152                  _IC3CON2 = 0x152
                    0x0152                  _IC3CON2bits = 0x152
                    0x0154                  IC3BUF = 0x154
                    0x0154                  _IC3BUF = 0x154
                    0x0156                  IC3TMR = 0x156
                    0x0156                  _IC3TMR = 0x156
                    0x0158                  IC4CON1 = 0x158
                    0x0158                  _IC4CON1 = 0x158
                    0x0158                  _IC4CON1bits = 0x158
                    0x015a                  IC4CON2 = 0x15a
                    0x015a                  _IC4CON2 = 0x15a
                    0x015a                  _IC4CON2bits = 0x15a
                    0x015c                  IC4BUF = 0x15c
                    0x015c                  _IC4BUF = 0x15c
                    0x015e                  IC4TMR = 0x15e
                    0x015e                  _IC4TMR = 0x15e
                    0x0160                  IC5CON1 = 0x160
                    0x0160                  _IC5CON1 = 0x160
                    0x0160                  _IC5CON1bits = 0x160
                    0x0162                  IC5CON2 = 0x162
                    0x0162                  _IC5CON2 = 0x162
                    0x0162                  _IC5CON2bits = 0x162
                    0x0164                  IC5BUF = 0x164
                    0x0164                  _IC5BUF = 0x164
                    0x0166                  IC5TMR = 0x166
                    0x0166                  _IC5TMR = 0x166
                    0x0168                  IC6CON1 = 0x168
                    0x0168                  _IC6CON1 = 0x168
                    0x0168                  _IC6CON1bits = 0x168
                    0x016a                  IC6CON2 = 0x16a
                    0x016a                  _IC6CON2 = 0x16a
                    0x016a                  _IC6CON2bits = 0x16a
                    0x016c                  IC6BUF = 0x16c
                    0x016c                  _IC6BUF = 0x16c
                    0x016e                  IC6TMR = 0x16e
                    0x016e                  _IC6TMR = 0x16e
                    0x0170                  IC7CON1 = 0x170
                    0x0170                  _IC7CON1 = 0x170
                    0x0170                  _IC7CON1bits = 0x170
                    0x0172                  IC7CON2 = 0x172
                    0x0172                  _IC7CON2 = 0x172
                    0x0172                  _IC7CON2bits = 0x172
                    0x0174                  IC7BUF = 0x174
                    0x0174                  _IC7BUF = 0x174
                    0x0176                  IC7TMR = 0x176
                    0x0176                  _IC7TMR = 0x176
                    0x0178                  IC8CON1 = 0x178
                    0x0178                  _IC8CON1 = 0x178
                    0x0178                  _IC8CON1bits = 0x178
                    0x017a                  IC8CON2 = 0x17a
                    0x017a                  _IC8CON2 = 0x17a
                    0x017a                  _IC8CON2bits = 0x17a
                    0x017c                  IC8BUF = 0x17c
                    0x017c                  _IC8BUF = 0x17c
                    0x017e                  IC8TMR = 0x17e
                    0x017e                  _IC8TMR = 0x17e
                    0x0180                  IC9CON1 = 0x180
                    0x0180                  _IC9CON1 = 0x180
                    0x0180                  _IC9CON1bits = 0x180
                    0x0182                  IC9CON2 = 0x182
                    0x0182                  _IC9CON2 = 0x182
                    0x0182                  _IC9CON2bits = 0x182
                    0x0184                  IC9BUF = 0x184
                    0x0184                  _IC9BUF = 0x184
                    0x0186                  IC9TMR = 0x186
                    0x0186                  _IC9TMR = 0x186
                    0x0190                  OC1CON1 = 0x190
                    0x0190                  _OC1CON1 = 0x190
                    0x0190                  _OC1CON1bits = 0x190
                    0x0192                  OC1CON2 = 0x192
                    0x0192                  _OC1CON2 = 0x192
                    0x0192                  _OC1CON2bits = 0x192
                    0x0194                  OC1RS = 0x194
                    0x0194                  _OC1RS = 0x194
                    0x0196                  OC1R = 0x196
                    0x0196                  _OC1R = 0x196
                    0x0198                  OC1TMR = 0x198
                    0x0198                  _OC1TMR = 0x198
                    0x019a                  OC2CON1 = 0x19a
                    0x019a                  _OC2CON1 = 0x19a
                    0x019a                  _OC2CON1bits = 0x19a
                    0x019c                  OC2CON2 = 0x19c
                    0x019c                  _OC2CON2 = 0x19c
                    0x019c                  _OC2CON2bits = 0x19c
                    0x019e                  OC2RS = 0x19e
                    0x019e                  _OC2RS = 0x19e
                    0x01a0                  OC2R = 0x1a0
                    0x01a0                  _OC2R = 0x1a0
                    0x01a2                  OC2TMR = 0x1a2
                    0x01a2                  _OC2TMR = 0x1a2
                    0x01a4                  OC3CON1 = 0x1a4
                    0x01a4                  _OC3CON1 = 0x1a4
                    0x01a4                  _OC3CON1bits = 0x1a4
                    0x01a6                  OC3CON2 = 0x1a6
                    0x01a6                  _OC3CON2 = 0x1a6
                    0x01a6                  _OC3CON2bits = 0x1a6
                    0x01a8                  OC3RS = 0x1a8
                    0x01a8                  _OC3RS = 0x1a8
                    0x01aa                  OC3R = 0x1aa
                    0x01aa                  _OC3R = 0x1aa
                    0x01ac                  OC3TMR = 0x1ac
                    0x01ac                  _OC3TMR = 0x1ac
                    0x01ae                  OC4CON1 = 0x1ae
                    0x01ae                  _OC4CON1 = 0x1ae
                    0x01ae                  _OC4CON1bits = 0x1ae
                    0x01b0                  OC4CON2 = 0x1b0
                    0x01b0                  _OC4CON2 = 0x1b0
                    0x01b0                  _OC4CON2bits = 0x1b0
                    0x01b2                  OC4RS = 0x1b2
                    0x01b2                  _OC4RS = 0x1b2
                    0x01b4                  OC4R = 0x1b4
                    0x01b4                  _OC4R = 0x1b4
                    0x01b6                  OC4TMR = 0x1b6
                    0x01b6                  _OC4TMR = 0x1b6
                    0x01b8                  OC5CON1 = 0x1b8
                    0x01b8                  _OC5CON1 = 0x1b8
                    0x01b8                  _OC5CON1bits = 0x1b8
                    0x01ba                  OC5CON2 = 0x1ba
                    0x01ba                  _OC5CON2 = 0x1ba
                    0x01ba                  _OC5CON2bits = 0x1ba
                    0x01bc                  OC5RS = 0x1bc
                    0x01bc                  _OC5RS = 0x1bc
                    0x01be                  OC5R = 0x1be
                    0x01be                  _OC5R = 0x1be
                    0x01c0                  OC5TMR = 0x1c0
                    0x01c0                  _OC5TMR = 0x1c0
                    0x01c2                  OC6CON1 = 0x1c2
                    0x01c2                  _OC6CON1 = 0x1c2
                    0x01c2                  _OC6CON1bits = 0x1c2
                    0x01c4                  OC6CON2 = 0x1c4
                    0x01c4                  _OC6CON2 = 0x1c4
                    0x01c4                  _OC6CON2bits = 0x1c4
                    0x01c6                  OC6RS = 0x1c6
                    0x01c6                  _OC6RS = 0x1c6
                    0x01c8                  OC6R = 0x1c8
                    0x01c8                  _OC6R = 0x1c8
                    0x01ca                  OC6TMR = 0x1ca
                    0x01ca                  _OC6TMR = 0x1ca
                    0x01cc                  OC7CON1 = 0x1cc
                    0x01cc                  _OC7CON1 = 0x1cc
                    0x01cc                  _OC7CON1bits = 0x1cc
                    0x01ce                  OC7CON2 = 0x1ce
                    0x01ce                  _OC7CON2 = 0x1ce
                    0x01ce                  _OC7CON2bits = 0x1ce
                    0x01d0                  OC7RS = 0x1d0
                    0x01d0                  _OC7RS = 0x1d0
                    0x01d2                  OC7R = 0x1d2
                    0x01d2                  _OC7R = 0x1d2
                    0x01d4                  OC7TMR = 0x1d4
                    0x01d4                  _OC7TMR = 0x1d4
                    0x01d6                  OC8CON1 = 0x1d6
                    0x01d6                  _OC8CON1 = 0x1d6
                    0x01d6                  _OC8CON1bits = 0x1d6
                    0x01d8                  OC8CON2 = 0x1d8
                    0x01d8                  _OC8CON2 = 0x1d8
                    0x01d8                  _OC8CON2bits = 0x1d8
                    0x01da                  OC8RS = 0x1da
                    0x01da                  _OC8RS = 0x1da
                    0x01dc                  OC8R = 0x1dc
                    0x01dc                  _OC8R = 0x1dc
                    0x01de                  OC8TMR = 0x1de
                    0x01de                  _OC8TMR = 0x1de
                    0x01e0                  OC9CON1 = 0x1e0
                    0x01e0                  _OC9CON1 = 0x1e0
                    0x01e0                  _OC9CON1bits = 0x1e0
                    0x01e2                  OC9CON2 = 0x1e2
                    0x01e2                  _OC9CON2 = 0x1e2
                    0x01e2                  _OC9CON2bits = 0x1e2
                    0x01e4                  OC9RS = 0x1e4
                    0x01e4                  _OC9RS = 0x1e4
                    0x01e6                  OC9R = 0x1e6
                    0x01e6                  _OC9R = 0x1e6
                    0x01e8                  OC9TMR = 0x1e8
                    0x01e8                  _OC9TMR = 0x1e8
                    0x0200                  I2C1RCV = 0x200
                    0x0200                  _I2C1RCV = 0x200
                    0x0202                  I2C1TRN = 0x202
                    0x0202                  _I2C1TRN = 0x202
                    0x0204                  I2C1BRG = 0x204
                    0x0204                  _I2C1BRG = 0x204
                    0x0206                  I2C1CON = 0x206
                    0x0206                  _I2C1CON = 0x206
                    0x0206                  _I2C1CONbits = 0x206
                    0x0208                  I2C1STAT = 0x208
                    0x0208                  _I2C1STAT = 0x208
                    0x0208                  _I2C1STATbits = 0x208
                    0x020a                  I2C1ADD = 0x20a
                    0x020a                  _I2C1ADD = 0x20a
                    0x020c                  I2C1MSK = 0x20c
                    0x020c                  _I2C1MSK = 0x20c
                    0x0210                  I2C2RCV = 0x210
                    0x0210                  _I2C2RCV = 0x210
                    0x0212                  I2C2TRN = 0x212
                    0x0212                  _I2C2TRN = 0x212
                    0x0214                  I2C2BRG = 0x214
                    0x0214                  _I2C2BRG = 0x214
                    0x0216                  I2C2CON = 0x216
                    0x0216                  _I2C2CON = 0x216
                    0x0216                  _I2C2CONbits = 0x216
                    0x0218                  I2C2STAT = 0x218
                    0x0218                  _I2C2STAT = 0x218
                    0x0218                  _I2C2STATbits = 0x218
                    0x021a                  I2C2ADD = 0x21a
                    0x021a                  _I2C2ADD = 0x21a
                    0x021c                  I2C2MSK = 0x21c
                    0x021c                  _I2C2MSK = 0x21c
                    0x0220                  U1MODE = 0x220
                    0x0220                  _U1MODE = 0x220
                    0x0220                  _U1MODEbits = 0x220
                    0x0222                  U1STA = 0x222
                    0x0222                  _U1STA = 0x222
                    0x0222                  _U1STAbits = 0x222
                    0x0224                  U1TXREG = 0x224
                    0x0224                  _U1TXREG = 0x224
                    0x0226                  U1RXREG = 0x226
                    0x0226                  _U1RXREG = 0x226
                    0x0228                  U1BRG = 0x228
                    0x0228                  _U1BRG = 0x228
                    0x0230                  U2MODE = 0x230
                    0x0230                  _U2MODE = 0x230
                    0x0230                  _U2MODEbits = 0x230
                    0x0232                  U2STA = 0x232
                    0x0232                  _U2STA = 0x232
                    0x0232                  _U2STAbits = 0x232
                    0x0234                  U2TXREG = 0x234
                    0x0234                  _U2TXREG = 0x234
                    0x0236                  U2RXREG = 0x236
                    0x0236                  _U2RXREG = 0x236
                    0x0238                  U2BRG = 0x238
                    0x0238                  _U2BRG = 0x238
                    0x0240                  SPI1STAT = 0x240
                    0x0240                  _SPI1STAT = 0x240
                    0x0240                  _SPI1STATbits = 0x240
                    0x0242                  SPI1CON1 = 0x242
                    0x0242                  _SPI1CON1 = 0x242
                    0x0242                  _SPI1CON1bits = 0x242
                    0x0244                  SPI1CON2 = 0x244
                    0x0244                  _SPI1CON2 = 0x244
                    0x0244                  _SPI1CON2bits = 0x244
                    0x0248                  SPI1BUF = 0x248
                    0x0248                  _SPI1BUF = 0x248
                    0x0250                  U3MODE = 0x250
                    0x0250                  _U3MODE = 0x250
                    0x0250                  _U3MODEbits = 0x250
                    0x0252                  U3STA = 0x252
                    0x0252                  _U3STA = 0x252
                    0x0252                  _U3STAbits = 0x252
                    0x0254                  U3TXREG = 0x254
                    0x0254                  _U3TXREG = 0x254
                    0x0256                  U3RXREG = 0x256
                    0x0256                  _U3RXREG = 0x256
                    0x0258                  U3BRG = 0x258
                    0x0258                  _U3BRG = 0x258
                    0x0260                  SPI2STAT = 0x260
                    0x0260                  _SPI2STAT = 0x260
                    0x0260                  _SPI2STATbits = 0x260
                    0x0262                  SPI2CON1 = 0x262
                    0x0262                  _SPI2CON1 = 0x262
                    0x0262                  _SPI2CON1bits = 0x262
                    0x0264                  SPI2CON2 = 0x264
                    0x0264                  _SPI2CON2 = 0x264
                    0x0264                  _SPI2CON2bits = 0x264
                    0x0268                  SPI2BUF = 0x268
                    0x0268                  _SPI2BUF = 0x268
                    0x0270                  I2C3RCV = 0x270
                    0x0270                  _I2C3RCV = 0x270
                    0x0272                  I2C3TRN = 0x272
                    0x0272                  _I2C3TRN = 0x272
                    0x0274                  I2C3BRG = 0x274
                    0x0274                  _I2C3BRG = 0x274
                    0x0276                  I2C3CON = 0x276
                    0x0276                  _I2C3CON = 0x276
                    0x0276                  _I2C3CONbits = 0x276
                    0x0278                  I2C3STAT = 0x278
                    0x0278                  _I2C3STAT = 0x278
                    0x0278                  _I2C3STATbits = 0x278
                    0x027a                  I2C3ADD = 0x27a
                    0x027a                  _I2C3ADD = 0x27a
                    0x027c                  I2C3MSK = 0x27c
                    0x027c                  _I2C3MSK = 0x27c
                    0x0280                  SPI3STAT = 0x280
                    0x0280                  _SPI3STAT = 0x280
                    0x0280                  _SPI3STATbits = 0x280
                    0x0282                  SPI3CON1 = 0x282
                    0x0282                  _SPI3CON1 = 0x282
                    0x0282                  _SPI3CON1bits = 0x282
                    0x0284                  SPI3CON2 = 0x284
                    0x0284                  _SPI3CON2 = 0x284
                    0x0284                  _SPI3CON2bits = 0x284
                    0x0288                  SPI3BUF = 0x288
                    0x0288                  _SPI3BUF = 0x288
                    0x02b0                  U4MODE = 0x2b0
                    0x02b0                  _U4MODE = 0x2b0
                    0x02b0                  _U4MODEbits = 0x2b0
                    0x02b2                  U4STA = 0x2b2
                    0x02b2                  _U4STA = 0x2b2
                    0x02b2                  _U4STAbits = 0x2b2
                    0x02b4                  U4TXREG = 0x2b4
                    0x02b4                  _U4TXREG = 0x2b4
                    0x02b6                  U4RXREG = 0x2b6
                    0x02b6                  _U4RXREG = 0x2b6
                    0x02b8                  U4BRG = 0x2b8
                    0x02b8                  _U4BRG = 0x2b8
                    0x02c0                  TRISA = 0x2c0
                    0x02c0                  _TRISA = 0x2c0
                    0x02c0                  _TRISAbits = 0x2c0
                    0x02c2                  PORTA = 0x2c2
                    0x02c2                  _PORTA = 0x2c2
                    0x02c2                  _PORTAbits = 0x2c2
                    0x02c4                  LATA = 0x2c4
                    0x02c4                  _LATA = 0x2c4
                    0x02c4                  _LATAbits = 0x2c4
                    0x02c6                  ODCA = 0x2c6
                    0x02c6                  _ODCA = 0x2c6
                    0x02c6                  _ODCAbits = 0x2c6
                    0x02c8                  TRISB = 0x2c8
                    0x02c8                  _TRISB = 0x2c8
                    0x02c8                  _TRISBbits = 0x2c8
                    0x02ca                  PORTB = 0x2ca
                    0x02ca                  _PORTB = 0x2ca
                    0x02ca                  _PORTBbits = 0x2ca
                    0x02cc                  LATB = 0x2cc
                    0x02cc                  _LATB = 0x2cc
                    0x02cc                  _LATBbits = 0x2cc
                    0x02ce                  ODCB = 0x2ce
                    0x02ce                  _ODCB = 0x2ce
                    0x02ce                  _ODCBbits = 0x2ce
                    0x02d0                  TRISC = 0x2d0
                    0x02d0                  _TRISC = 0x2d0
                    0x02d0                  _TRISCbits = 0x2d0
                    0x02d2                  PORTC = 0x2d2
                    0x02d2                  _PORTC = 0x2d2
                    0x02d2                  _PORTCbits = 0x2d2
                    0x02d4                  LATC = 0x2d4
                    0x02d4                  _LATC = 0x2d4
                    0x02d4                  _LATCbits = 0x2d4
                    0x02d6                  ODCC = 0x2d6
                    0x02d6                  _ODCC = 0x2d6
                    0x02d6                  _ODCCbits = 0x2d6
                    0x02d8                  TRISD = 0x2d8
                    0x02d8                  _TRISD = 0x2d8
                    0x02d8                  _TRISDbits = 0x2d8
                    0x02da                  PORTD = 0x2da
                    0x02da                  _PORTD = 0x2da
                    0x02da                  _PORTDbits = 0x2da
                    0x02dc                  LATD = 0x2dc
                    0x02dc                  _LATD = 0x2dc
                    0x02dc                  _LATDbits = 0x2dc
                    0x02de                  ODCD = 0x2de
                    0x02de                  _ODCD = 0x2de
                    0x02de                  _ODCDbits = 0x2de
                    0x02e0                  TRISE = 0x2e0
                    0x02e0                  _TRISE = 0x2e0
                    0x02e0                  _TRISEbits = 0x2e0
                    0x02e2                  PORTE = 0x2e2
                    0x02e2                  _PORTE = 0x2e2
                    0x02e2                  _PORTEbits = 0x2e2
                    0x02e4                  LATE = 0x2e4
                    0x02e4                  _LATE = 0x2e4
                    0x02e4                  _LATEbits = 0x2e4
                    0x02e6                  ODCE = 0x2e6
                    0x02e6                  _ODCE = 0x2e6
                    0x02e6                  _ODCEbits = 0x2e6
                    0x02e8                  TRISF = 0x2e8
                    0x02e8                  _TRISF = 0x2e8
                    0x02e8                  _TRISFbits = 0x2e8
                    0x02ea                  PORTF = 0x2ea
                    0x02ea                  _PORTF = 0x2ea
                    0x02ea                  _PORTFbits = 0x2ea
                    0x02ec                  LATF = 0x2ec
                    0x02ec                  _LATF = 0x2ec
                    0x02ec                  _LATFbits = 0x2ec
                    0x02ee                  ODCF = 0x2ee
                    0x02ee                  _ODCF = 0x2ee
                    0x02ee                  _ODCFbits = 0x2ee
                    0x02f0                  TRISG = 0x2f0
                    0x02f0                  _TRISG = 0x2f0
                    0x02f0                  _TRISGbits = 0x2f0
                    0x02f2                  PORTG = 0x2f2
                    0x02f2                  _PORTG = 0x2f2
                    0x02f2                  _PORTGbits = 0x2f2
                    0x02f4                  LATG = 0x2f4
                    0x02f4                  _LATG = 0x2f4
                    0x02f4                  _LATGbits = 0x2f4
                    0x02f6                  ODCG = 0x2f6
                    0x02f6                  _ODCG = 0x2f6
                    0x02f6                  _ODCGbits = 0x2f6
                    0x02fc                  PADCFG1 = 0x2fc
                    0x02fc                  _PADCFG1 = 0x2fc
                    0x02fc                  _PADCFG1bits = 0x2fc
                    0x0300                  ADC1BUF0 = 0x300
                    0x0300                  _ADC1BUF0 = 0x300
                    0x0302                  ADC1BUF1 = 0x302
                    0x0302                  _ADC1BUF1 = 0x302
                    0x0304                  ADC1BUF2 = 0x304
                    0x0304                  _ADC1BUF2 = 0x304
                    0x0306                  ADC1BUF3 = 0x306
                    0x0306                  _ADC1BUF3 = 0x306
                    0x0308                  ADC1BUF4 = 0x308
                    0x0308                  _ADC1BUF4 = 0x308
                    0x030a                  ADC1BUF5 = 0x30a
                    0x030a                  _ADC1BUF5 = 0x30a
                    0x030c                  ADC1BUF6 = 0x30c
                    0x030c                  _ADC1BUF6 = 0x30c
                    0x030e                  ADC1BUF7 = 0x30e
                    0x030e                  _ADC1BUF7 = 0x30e
                    0x0310                  ADC1BUF8 = 0x310
                    0x0310                  _ADC1BUF8 = 0x310
                    0x0312                  ADC1BUF9 = 0x312
                    0x0312                  _ADC1BUF9 = 0x312
                    0x0314                  ADC1BUFA = 0x314
                    0x0314                  _ADC1BUFA = 0x314
                    0x0316                  ADC1BUFB = 0x316
                    0x0316                  _ADC1BUFB = 0x316
                    0x0318                  ADC1BUFC = 0x318
                    0x0318                  _ADC1BUFC = 0x318
                    0x031a                  ADC1BUFD = 0x31a
                    0x031a                  _ADC1BUFD = 0x31a
                    0x031c                  ADC1BUFE = 0x31c
                    0x031c                  _ADC1BUFE = 0x31c
                    0x031e                  ADC1BUFF = 0x31e
                    0x031e                  _ADC1BUFF = 0x31e
                    0x0320                  AD1CON1 = 0x320
                    0x0320                  _AD1CON1 = 0x320
                    0x0320                  _AD1CON1bits = 0x320
                    0x0322                  AD1CON2 = 0x322
                    0x0322                  _AD1CON2 = 0x322
                    0x0322                  _AD1CON2bits = 0x322
                    0x0324                  AD1CON3 = 0x324
                    0x0324                  _AD1CON3 = 0x324
                    0x0324                  _AD1CON3bits = 0x324
                    0x0328                  AD1CHS = 0x328
                    0x0328                  _AD1CHS = 0x328
                    0x0328                  _AD1CHSbits = 0x328
                    0x0328                  AD1CHS0 = 0x328
                    0x0328                  _AD1CHS0 = 0x328
                    0x0328                  _AD1CHS0bits = 0x328
                    0x032a                  AD1PCFGH = 0x32a
                    0x032a                  _AD1PCFGH = 0x32a
                    0x032a                  _AD1PCFGHbits = 0x32a
                    0x032c                  AD1PCFG = 0x32c
                    0x032c                  _AD1PCFG = 0x32c
                    0x032c                  _AD1PCFGbits = 0x32c
                    0x032c                  AD1PCFGL = 0x32c
                    0x032c                  _AD1PCFGL = 0x32c
                    0x032c                  _AD1PCFGLbits = 0x32c
                    0x0330                  AD1CSSL = 0x330
                    0x0330                  _AD1CSSL = 0x330
                    0x0330                  _AD1CSSLbits = 0x330
                    0x0332                  AD1CSSH = 0x332
                    0x0332                  _AD1CSSH = 0x332
                    0x0332                  _AD1CSSHbits = 0x332
                    0x033c                  CTMUCON = 0x33c
                    0x033c                  _CTMUCON = 0x33c
                    0x033c                  _CTMUCONbits = 0x33c
                    0x033e                  CTMUICON = 0x33e
                    0x033e                  _CTMUICON = 0x33e
                    0x033e                  _CTMUICONbits = 0x33e
                    0x0480                  U1OTGIR = 0x480
                    0x0480                  _U1OTGIR = 0x480
                    0x0480                  _U1OTGIRbits = 0x480
                    0x0482                  U1OTGIE = 0x482
                    0x0482                  _U1OTGIE = 0x482
                    0x0482                  _U1OTGIEbits = 0x482
                    0x0484                  U1OTGSTAT = 0x484
                    0x0484                  _U1OTGSTAT = 0x484
                    0x0484                  _U1OTGSTATbits = 0x484
                    0x0486                  U1OTGCON = 0x486
                    0x0486                  _U1OTGCON = 0x486
                    0x0486                  _U1OTGCONbits = 0x486
                    0x0488                  U1PWRC = 0x488
                    0x0488                  _U1PWRC = 0x488
                    0x0488                  _U1PWRCbits = 0x488
                    0x048a                  U1IR = 0x48a
                    0x048a                  _U1IR = 0x48a
                    0x048a                  _U1IRbits = 0x48a
                    0x048c                  U1IE = 0x48c
                    0x048c                  _U1IE = 0x48c
                    0x048c                  _U1IEbits = 0x48c
                    0x048e                  U1EIR = 0x48e
                    0x048e                  _U1EIR = 0x48e
                    0x048e                  _U1EIRbits = 0x48e
                    0x0490                  U1EIE = 0x490
                    0x0490                  _U1EIE = 0x490
                    0x0490                  _U1EIEbits = 0x490
                    0x0492                  U1STAT = 0x492
                    0x0492                  _U1STAT = 0x492
                    0x0492                  _U1STATbits = 0x492
                    0x0494                  U1CON = 0x494
                    0x0494                  _U1CON = 0x494
                    0x0494                  _U1CONbits = 0x494
                    0x0496                  U1ADDR = 0x496
                    0x0496                  _U1ADDR = 0x496
                    0x0496                  _U1ADDRbits = 0x496
                    0x0498                  U1BDTP1 = 0x498
                    0x0498                  _U1BDTP1 = 0x498
                    0x0498                  _U1BDTP1bits = 0x498
                    0x049a                  U1FRML = 0x49a
                    0x049a                  _U1FRML = 0x49a
                    0x049a                  _U1FRMLbits = 0x49a
                    0x049c                  U1FRMH = 0x49c
                    0x049c                  _U1FRMH = 0x49c
                    0x049c                  _U1FRMHbits = 0x49c
                    0x049e                  U1TOK = 0x49e
                    0x049e                  _U1TOK = 0x49e
                    0x049e                  _U1TOKbits = 0x49e
                    0x04a0                  U1SOF = 0x4a0
                    0x04a0                  _U1SOF = 0x4a0
                    0x04a0                  _U1SOFbits = 0x4a0
                    0x04a2                  U1BDTP2 = 0x4a2
                    0x04a2                  _U1BDTP2 = 0x4a2
                    0x04a2                  _U1BDTP2bits = 0x4a2
                    0x04a4                  U1BDTP3 = 0x4a4
                    0x04a4                  _U1BDTP3 = 0x4a4
                    0x04a4                  _U1BDTP3bits = 0x4a4
                    0x04a6                  U1CNFG1 = 0x4a6
                    0x04a6                  _U1CNFG1 = 0x4a6
                    0x04a6                  _U1CNFG1bits = 0x4a6
                    0x04a8                  U1CNFG2 = 0x4a8
                    0x04a8                  _U1CNFG2 = 0x4a8
                    0x04a8                  _U1CNFG2bits = 0x4a8
                    0x04aa                  U1EP0 = 0x4aa
                    0x04aa                  _U1EP0 = 0x4aa
                    0x04aa                  _U1EP0bits = 0x4aa
                    0x04ac                  U1EP1 = 0x4ac
                    0x04ac                  _U1EP1 = 0x4ac
                    0x04ac                  _U1EP1bits = 0x4ac
                    0x04ae                  U1EP2 = 0x4ae
                    0x04ae                  _U1EP2 = 0x4ae
                    0x04ae                  _U1EP2bits = 0x4ae
                    0x04b0                  U1EP3 = 0x4b0
                    0x04b0                  _U1EP3 = 0x4b0
                    0x04b0                  _U1EP3bits = 0x4b0
                    0x04b2                  U1EP4 = 0x4b2
                    0x04b2                  _U1EP4 = 0x4b2
                    0x04b2                  _U1EP4bits = 0x4b2
                    0x04b4                  U1EP5 = 0x4b4
                    0x04b4                  _U1EP5 = 0x4b4
                    0x04b4                  _U1EP5bits = 0x4b4
                    0x04b6                  U1EP6 = 0x4b6
                    0x04b6                  _U1EP6 = 0x4b6
                    0x04b6                  _U1EP6bits = 0x4b6
                    0x04b8                  U1EP7 = 0x4b8
                    0x04b8                  _U1EP7 = 0x4b8
                    0x04b8                  _U1EP7bits = 0x4b8
                    0x04ba                  U1EP8 = 0x4ba
                    0x04ba                  _U1EP8 = 0x4ba
                    0x04ba                  _U1EP8bits = 0x4ba
                    0x04bc                  U1EP9 = 0x4bc
                    0x04bc                  _U1EP9 = 0x4bc
                    0x04bc                  _U1EP9bits = 0x4bc
                    0x04be                  U1EP10 = 0x4be
                    0x04be                  _U1EP10 = 0x4be
                    0x04be                  _U1EP10bits = 0x4be
                    0x04c0                  U1EP11 = 0x4c0
                    0x04c0                  _U1EP11 = 0x4c0
                    0x04c0                  _U1EP11bits = 0x4c0
                    0x04c2                  U1EP12 = 0x4c2
                    0x04c2                  _U1EP12 = 0x4c2
                    0x04c2                  _U1EP12bits = 0x4c2
                    0x04c4                  U1EP13 = 0x4c4
                    0x04c4                  _U1EP13 = 0x4c4
                    0x04c4                  _U1EP13bits = 0x4c4
                    0x04c6                  U1EP14 = 0x4c6
                    0x04c6                  _U1EP14 = 0x4c6
                    0x04c6                  _U1EP14bits = 0x4c6
                    0x04c8                  U1EP15 = 0x4c8
                    0x04c8                  _U1EP15 = 0x4c8
                    0x04c8                  _U1EP15bits = 0x4c8
                    0x04cc                  U1PWMRRS = 0x4cc
                    0x04cc                  _U1PWMRRS = 0x4cc
                    0x04cc                  _U1PWMRRSbits = 0x4cc
                    0x04ce                  U1PWMCON = 0x4ce
                    0x04ce                  _U1PWMCON = 0x4ce
                    0x04ce                  _U1PWMCONbits = 0x4ce
                    0x0600                  PMCON = 0x600
                    0x0600                  _PMCON = 0x600
                    0x0600                  _PMCONbits = 0x600
                    0x0602                  PMMODE = 0x602
                    0x0602                  _PMMODE = 0x602
                    0x0602                  _PMMODEbits = 0x602
                    0x0604                  PMADDR = 0x604
                    0x0604                  _PMADDR = 0x604
                    0x0604                  _PMADDRbits = 0x604
                    0x0604                  PMDOUT1 = 0x604
                    0x0604                  _PMDOUT1 = 0x604
                    0x0604                  _PMDOUT1bits = 0x604
                    0x0606                  PMDOUT2 = 0x606
                    0x0606                  _PMDOUT2 = 0x606
                    0x0608                  PMDIN1 = 0x608
                    0x0608                  _PMDIN1 = 0x608
                    0x060a                  PMDIN2 = 0x60a
                    0x060a                  _PMDIN2 = 0x60a
                    0x060c                  PMAEN = 0x60c
                    0x060c                  _PMAEN = 0x60c
                    0x060c                  _PMAENbits = 0x60c
                    0x060e                  PMSTAT = 0x60e
                    0x060e                  _PMSTAT = 0x60e
                    0x060e                  _PMSTATbits = 0x60e
                    0x0620                  ALRMVAL = 0x620
                    0x0620                  _ALRMVAL = 0x620
                    0x0622                  ALCFGRPT = 0x622
                    0x0622                  _ALCFGRPT = 0x622
                    0x0622                  _ALCFGRPTbits = 0x622
                    0x0624                  RTCVAL = 0x624
                    0x0624                  _RTCVAL = 0x624
                    0x0626                  RCFGCAL = 0x626
                    0x0626                  _RCFGCAL = 0x626
                    0x0626                  _RCFGCALbits = 0x626
                    0x0630                  CMSTAT = 0x630
                    0x0630                  _CMSTAT = 0x630
                    0x0630                  _CMSTATbits = 0x630
                    0x0632                  CVRCON = 0x632
                    0x0632                  _CVRCON = 0x632
                    0x0632                  _CVRCONbits = 0x632
                    0x0634                  CM1CON = 0x634
                    0x0634                  _CM1CON = 0x634
                    0x0634                  _CM1CONbits = 0x634
                    0x0636                  CM2CON = 0x636
                    0x0636                  _CM2CON = 0x636
                    0x0636                  _CM2CONbits = 0x636
                    0x0638                  CM3CON = 0x638
                    0x0638                  _CM3CON = 0x638
                    0x0638                  _CM3CONbits = 0x638
                    0x0640                  CRCCON = 0x640
                    0x0640                  _CRCCON = 0x640
                    0x0640                  _CRCCONbits = 0x640
                    0x0642                  CRCXOR = 0x642
                    0x0642                  _CRCXOR = 0x642
                    0x0642                  _CRCXORbits = 0x642
                    0x0644                  CRCDAT = 0x644
                    0x0644                  _CRCDAT = 0x644
                    0x0646                  CRCWDAT = 0x646
                    0x0646                  _CRCWDAT = 0x646
                    0x0680                  RPINR0 = 0x680
                    0x0680                  _RPINR0 = 0x680
                    0x0680                  _RPINR0bits = 0x680
                    0x0682                  RPINR1 = 0x682
                    0x0682                  _RPINR1 = 0x682
                    0x0682                  _RPINR1bits = 0x682
                    0x0684                  RPINR2 = 0x684
                    0x0684                  _RPINR2 = 0x684
                    0x0684                  _RPINR2bits = 0x684
                    0x0686                  RPINR3 = 0x686
                    0x0686                  _RPINR3 = 0x686
                    0x0686                  _RPINR3bits = 0x686
                    0x0688                  RPINR4 = 0x688
                    0x0688                  _RPINR4 = 0x688
                    0x0688                  _RPINR4bits = 0x688
                    0x068e                  RPINR7 = 0x68e
                    0x068e                  _RPINR7 = 0x68e
                    0x068e                  _RPINR7bits = 0x68e
                    0x0690                  RPINR8 = 0x690
                    0x0690                  _RPINR8 = 0x690
                    0x0690                  _RPINR8bits = 0x690
                    0x0692                  RPINR9 = 0x692
                    0x0692                  _RPINR9 = 0x692
                    0x0692                  _RPINR9bits = 0x692
                    0x0694                  RPINR10 = 0x694
                    0x0694                  _RPINR10 = 0x694
                    0x0694                  _RPINR10bits = 0x694
                    0x0696                  RPINR11 = 0x696
                    0x0696                  _RPINR11 = 0x696
                    0x0696                  _RPINR11bits = 0x696
                    0x069e                  RPINR15 = 0x69e
                    0x069e                  _RPINR15 = 0x69e
                    0x069e                  _RPINR15bits = 0x69e
                    0x06a2                  RPINR17 = 0x6a2
                    0x06a2                  _RPINR17 = 0x6a2
                    0x06a2                  _RPINR17bits = 0x6a2
                    0x06a4                  RPINR18 = 0x6a4
                    0x06a4                  _RPINR18 = 0x6a4
                    0x06a4                  _RPINR18bits = 0x6a4
                    0x06a6                  RPINR19 = 0x6a6
                    0x06a6                  _RPINR19 = 0x6a6
                    0x06a6                  _RPINR19bits = 0x6a6
                    0x06a8                  RPINR20 = 0x6a8
                    0x06a8                  _RPINR20 = 0x6a8
                    0x06a8                  _RPINR20bits = 0x6a8
                    0x06aa                  RPINR21 = 0x6aa
                    0x06aa                  _RPINR21 = 0x6aa
                    0x06aa                  _RPINR21bits = 0x6aa
                    0x06ac                  RPINR22 = 0x6ac
                    0x06ac                  _RPINR22 = 0x6ac
                    0x06ac                  _RPINR22bits = 0x6ac
                    0x06ae                  RPINR23 = 0x6ae
                    0x06ae                  _RPINR23 = 0x6ae
                    0x06ae                  _RPINR23bits = 0x6ae
                    0x06b6                  RPINR27 = 0x6b6
                    0x06b6                  _RPINR27 = 0x6b6
                    0x06b6                  _RPINR27bits = 0x6b6
                    0x06b8                  RPINR28 = 0x6b8
                    0x06b8                  _RPINR28 = 0x6b8
                    0x06b8                  _RPINR28bits = 0x6b8
                    0x06ba                  RPINR29 = 0x6ba
                    0x06ba                  _RPINR29 = 0x6ba
                    0x06ba                  _RPINR29bits = 0x6ba
                    0x06c0                  RPOR0 = 0x6c0
                    0x06c0                  _RPOR0 = 0x6c0
                    0x06c0                  _RPOR0bits = 0x6c0
                    0x06c2                  RPOR1 = 0x6c2
                    0x06c2                  _RPOR1 = 0x6c2
                    0x06c2                  _RPOR1bits = 0x6c2
                    0x06c4                  RPOR2 = 0x6c4
                    0x06c4                  _RPOR2 = 0x6c4
                    0x06c4                  _RPOR2bits = 0x6c4
                    0x06c6                  RPOR3 = 0x6c6
                    0x06c6                  _RPOR3 = 0x6c6
                    0x06c6                  _RPOR3bits = 0x6c6
                    0x06c8                  RPOR4 = 0x6c8
                    0x06c8                  _RPOR4 = 0x6c8
                    0x06c8                  _RPOR4bits = 0x6c8
                    0x06ca                  RPOR5 = 0x6ca
                    0x06ca                  _RPOR5 = 0x6ca
                    0x06ca                  _RPOR5bits = 0x6ca
                    0x06cc                  RPOR6 = 0x6cc
                    0x06cc                  _RPOR6 = 0x6cc
                    0x06cc                  _RPOR6bits = 0x6cc
                    0x06ce                  RPOR7 = 0x6ce
                    0x06ce                  _RPOR7 = 0x6ce
                    0x06ce                  _RPOR7bits = 0x6ce
                    0x06d0                  RPOR8 = 0x6d0
                    0x06d0                  _RPOR8 = 0x6d0
                    0x06d0                  _RPOR8bits = 0x6d0
                    0x06d2                  RPOR9 = 0x6d2
                    0x06d2                  _RPOR9 = 0x6d2
                    0x06d2                  _RPOR9bits = 0x6d2
                    0x06d4                  RPOR10 = 0x6d4
                    0x06d4                  _RPOR10 = 0x6d4
                    0x06d4                  _RPOR10bits = 0x6d4
                    0x06d6                  RPOR11 = 0x6d6
                    0x06d6                  _RPOR11 = 0x6d6
                    0x06d6                  _RPOR11bits = 0x6d6
                    0x06d8                  RPOR12 = 0x6d8
                    0x06d8                  _RPOR12 = 0x6d8
                    0x06d8                  _RPOR12bits = 0x6d8
                    0x06da                  RPOR13 = 0x6da
                    0x06da                  _RPOR13 = 0x6da
                    0x06da                  _RPOR13bits = 0x6da
                    0x06dc                  RPOR14 = 0x6dc
                    0x06dc                  _RPOR14 = 0x6dc
                    0x06dc                  _RPOR14bits = 0x6dc
                    0x06de                  RPOR15 = 0x6de
                    0x06de                  _RPOR15 = 0x6de
                    0x06de                  _RPOR15bits = 0x6de
                    0x0740                  RCON = 0x740
                    0x0740                  _RCON = 0x740
                    0x0740                  _RCONbits = 0x740
                    0x0742                  OSCCON = 0x742
                    0x0742                  _OSCCON = 0x742
                    0x0742                  _OSCCONbits = 0x742
                    0x0742                  OSCCONL = 0x742
                    0x0742                  _OSCCONL = 0x742
                    0x0743                  OSCCONH = 0x743
                    0x0743                  _OSCCONH = 0x743
                    0x0744                  CLKDIV = 0x744
                    0x0744                  _CLKDIV = 0x744
                    0x0744                  _CLKDIVbits = 0x744
                    0x0748                  OSCTUN = 0x748
                    0x0748                  _OSCTUN = 0x748
                    0x0748                  _OSCTUNbits = 0x748
                    0x074e                  REFOCON = 0x74e
                    0x074e                  _REFOCON = 0x74e
                    0x074e                  _REFOCONbits = 0x74e
                    0x0760                  NVMCON = 0x760
                    0x0760                  _NVMCON = 0x760
                    0x0760                  _NVMCONbits = 0x760
                    0x0766                  NVMKEY = 0x766
                    0x0766                  _NVMKEY = 0x766
                    0x0770                  PMD1 = 0x770
                    0x0770                  _PMD1 = 0x770
                    0x0770                  _PMD1bits = 0x770
                    0x0772                  PMD2 = 0x772
                    0x0772                  _PMD2 = 0x772
                    0x0772                  _PMD2bits = 0x772
                    0x0774                  PMD3 = 0x774
                    0x0774                  _PMD3 = 0x774
                    0x0774                  _PMD3bits = 0x774
                    0x0776                  PMD4 = 0x776
                    0x0776                  _PMD4 = 0x776
                    0x0776                  _PMD4bits = 0x776
                    0x0778                  PMD5 = 0x778
                    0x0778                  _PMD5 = 0x778
                    0x0778                  _PMD5bits = 0x778
                    0x077a                  PMD6 = 0x77a
                    0x077a                  _PMD6 = 0x77a
                    0x077a                  _PMD6bits = 0x77a
                    0x0144                  IC1 = 0x144
                    0x0144                  _IC1 = 0x144
                    0x014c                  IC2 = 0x14c
                    0x014c                  _IC2 = 0x14c
                    0x0154                  IC3 = 0x154
                    0x0154                  _IC3 = 0x154
                    0x015c                  IC4 = 0x15c
                    0x015c                  _IC4 = 0x15c
                    0x0164                  IC5 = 0x164
                    0x0164                  _IC5 = 0x164
                    0x016c                  IC6 = 0x16c
                    0x016c                  _IC6 = 0x16c
                    0x0174                  IC7 = 0x174
                    0x0174                  _IC7 = 0x174
                    0x017c                  IC8 = 0x17c
                    0x017c                  _IC8 = 0x17c
                    0x0194                  OC1 = 0x194
                    0x0194                  _OC1 = 0x194
                    0x019e                  OC2 = 0x19e
                    0x019e                  _OC2 = 0x19e
                    0x01a8                  OC3 = 0x1a8
                    0x01a8                  _OC3 = 0x1a8
                    0x01b2                  OC4 = 0x1b2
                    0x01b2                  _OC4 = 0x1b2
                    0x01bc                  OC5 = 0x1bc
                    0x01bc                  _OC5 = 0x1bc
                    0x01c6                  OC6 = 0x1c6
                    0x01c6                  _OC6 = 0x1c6
                    0x01d0                  OC7 = 0x1d0
                    0x01d0                  _OC7 = 0x1d0
                    0x01da                  OC8 = 0x1da
                    0x01da                  _OC8 = 0x1da
                    0x0240                  SPI1 = 0x240
                    0x0240                  _SPI1 = 0x240
                    0x0260                  SPI2 = 0x260
                    0x0260                  _SPI2 = 0x260
                    0x0220                  UART1 = 0x220
                    0x0220                  _UART1 = 0x220
                    0x0230                  UART2 = 0x230
                    0x0230                  _UART2 = 0x230
                    0x0001                  __MPLAB_BUILD = 0x1
START GROUP
LOAD c:/program files (x86)/microchip/mplab c30/bin/bin/../../lib\libpic30-coff.a
LOAD c:/program files (x86)/microchip/mplab c30/bin/bin/../../lib\libm-coff.a
LOAD c:/program files (x86)/microchip/mplab c30/bin/bin/../../lib\libc-coff.a
END GROUP
OUTPUT(WAT89EC-8_RU_B_V1.27.cof coff-pic30)
LOAD data_init
LOAD default_isr
LOAD heap

__c30_signature
                  0x000000        0x10e
 __c30_signature
                  0x000000          0x6 WAT89EC-8_RU_B-temp\Beep.o
 __c30_signature
                  0x000006          0x6 WAT89EC-8_RU_B-temp\Button.o
 __c30_signature
                  0x00000c          0x6 WAT89EC-8_RU_B-temp\CheckBox.o
 __c30_signature
                  0x000012          0x6 WAT89EC-8_RU_B-temp\EditBox.o
 __c30_signature
                  0x000018          0x6 WAT89EC-8_RU_B-temp\EEPROM.o
 __c30_signature
                  0x00001e          0x6 WAT89EC-8_RU_B-temp\Fonts.o
 __c30_signature
                  0x000024          0x6 WAT89EC-8_RU_B-temp\GOL.o
 __c30_signature
                  0x00002a          0x6 WAT89EC-8_RU_B-temp\GroupBox.o
 __c30_signature
                  0x000030          0x6 WAT89EC-8_RU_B-temp\HX8347A.o
 __c30_signature
                  0x000036          0x6 WAT89EC-8_RU_B-temp\ListBox.o
 __c30_signature
                  0x00003c          0x6 WAT89EC-8_RU_B-temp\MainDemo.o
 __c30_signature
                  0x000042          0x6 WAT89EC-8_RU_B-temp\Meter.o
 __c30_signature
                  0x000048          0x6 WAT89EC-8_RU_B-temp\Pgps.o
 __c30_signature
                  0x00004e          0x6 WAT89EC-8_RU_B-temp\Picture.o
 __c30_signature
                  0x000054          0x6 WAT89EC-8_RU_B-temp\Pictures PIC24.o
 __c30_signature
                  0x00005a          0x6 WAT89EC-8_RU_B-temp\Primitive.o
 __c30_signature
                  0x000060          0x6 WAT89EC-8_RU_B-temp\printer.o
 __c30_signature
                  0x000066          0x6 WAT89EC-8_RU_B-temp\ProgressBar.o
 __c30_signature
                  0x00006c          0x6 WAT89EC-8_RU_B-temp\RadioButton.o
 __c30_signature
                  0x000072          0x6 WAT89EC-8_RU_B-temp\RoundDial.o
 __c30_signature
                  0x000078          0x6 WAT89EC-8_RU_B-temp\rtcc.o
 __c30_signature
                  0x00007e          0x6 WAT89EC-8_RU_B-temp\S6D0129_S6D0139.o
 __c30_signature
                  0x000084          0x6 WAT89EC-8_RU_B-temp\SideButtons.o
 __c30_signature
                  0x00008a          0x6 WAT89EC-8_RU_B-temp\Slider.o
 __c30_signature
                  0x000090          0x6 WAT89EC-8_RU_B-temp\StaticText.o
 __c30_signature
                  0x000096          0x6 WAT89EC-8_RU_B-temp\TouchScreen.o
 __c30_signature
                  0x00009c          0x6 WAT89EC-8_RU_B-temp\usb_descriptors.o
 __c30_signature
                  0x0000a2          0x6 WAT89EC-8_RU_B-temp\usb_device.o
 __c30_signature
                  0x0000a8          0x6 WAT89EC-8_RU_B-temp\usb_function_hid.o
 __c30_signature
                  0x0000ae          0x6 WAT89EC-8_RU_B-temp\usb_hal_pic24.o
 __c30_signature
                  0x0000b4          0x6 WAT89EC-8_RU_B-temp\Window.o
 __c30_signature
                  0x0000ba          0x6 WAT89EC-8_RU_B-temp\ziku.o
 __c30_signature
                  0x0000c0          0x6 c:/program files (x86)/microchip/mplab c30/bin/bin/../../lib\libpic30-coff.a(crt0_standard.o)
 __c30_signature
                  0x0000c6          0x6 c:/program files (x86)/microchip/mplab c30/bin/bin/../../lib\libpic30-coff.a(data_init_standard.o)
 __c30_signature
                  0x0000cc          0x6 c:/program files (x86)/microchip/mplab c30/bin/bin/../../lib\libm-coff.a(mulsi3.o)
 __c30_signature
                  0x0000d2          0x6 c:/program files (x86)/microchip/mplab c30/bin/bin/../../lib\libm-coff.a(udivsi3.o)
 __c30_signature
                  0x0000d8          0x6 c:/program files (x86)/microchip/mplab c30/bin/bin/../../lib\libm-coff.a(divsi3.o)
 __c30_signature
                  0x0000de          0x6 c:/program files (x86)/microchip/mplab c30/bin/bin/../../lib\libc-coff.a(malloc.o)
 __c30_signature
                  0x0000e4          0x6 c:/program files (x86)/microchip/mplab c30/bin/bin/../../lib\libc-coff.a(free.o)
 __c30_signature
                  0x0000ea          0x6 c:/program files (x86)/microchip/mplab c30/bin/bin/../../lib\libc-coff.a(memset.o)
 __c30_signature
                  0x0000f0          0x6 c:/program files (x86)/microchip/mplab c30/bin/bin/../../lib\libc-coff.a(strstr.o)
 __c30_signature
                  0x0000f6          0x6 c:/program files (x86)/microchip/mplab c30/bin/bin/../../lib\libc-coff.a(xgetmem.o)
 __c30_signature
                  0x0000fc          0x6 c:/program files (x86)/microchip/mplab c30/bin/bin/../../lib\libc-coff.a(strchr.o)
 __c30_signature
                  0x000102          0x6 c:/program files (x86)/microchip/mplab c30/bin/bin/../../lib\libpic30-coff.a(sbrk.o)
 __c30_signature
                  0x000108          0x6 c:/program files (x86)/microchip/mplab c30/bin/bin/../../lib\libpic30-coff.a(brk.o)

.data               0x0800       0x1968
 .data              0x0800       0x1968 WAT89EC-8_RU_B-temp\MainDemo.o
                    0x0800                  pTempabc
                    0x0868                  pTempABC
                    0x08d0                  KEYPADRUSSIAN
                    0x08e8                  pTempRUSSIAN
                    0x0974                  pTemprussian
                    0x09f8                  pTempXchar
                    0x0a28                  DTUpArrow
                    0x0a2a                  DTDownArrow
                    0x0a2c                  DTDoneText
                    0x0a2e                  DTMinusSym
                    0x0a32                  DTPlusSym
                    0x0a36                  DTSetText
                    0x0a38                  YearItems
                    0x0ab6                  DayItems
                    0x0b70                  MonthItems
                    0x0bb8                  TenUnits
                    0x0c08                  SoftwareID
                    0x0c22                  Countdown
                    0x0c4a                  BlueToothcount
                    0x0c4c                  PeakScreen
                    0x0c4e                  Jumptox
                    0x0c5e                  savetemp
                    0x0c5f                  Wetgas_d
                    0x0c60                  Drygas_D
                    0x0c62                  WetgasadustStr
                    0x0c6a                  DrygasadustStr
                    0x0c72                  UnumberStr
                    0x0c74                  BnumberStr
                    0x0c76                  update2
                    0x0c78                  update1
                    0x0c7a                  PDset
                    0x0c7c                  Demarcate
                    0x0c7e                  MarkTemp
                    0x0c80                  serialnumberRecord
                    0x0c82                  serialnumber
                    0x0c84                  consbuffStr
                    0x0caa                  TempbuffStr
                    0x0cd0                  Flashbuff
                    0x0ed0                  serialnumberStr
                    0x0edc                  Mark4Str
                    0x0ee2                  Mark3Str
                    0x0ee8                  Mark2Str
                    0x0eee                  Mark1Str
                    0x0ef4                  T8Str
                    0x0efa                  T7Str
                    0x0f00                  T6Str
                    0x0f06                  T5Str
                    0x0f0c                  T4Str
                    0x0f12                  T3Str
                    0x0f18                  T2Str
                    0x0f1e                  T1Str
                    0x0f24                  Adj_tem
                    0x0f26                  Adj_adc
                    0x0f28                  DemarcateAD20
                    0x0f36                  DemarcateAD19
                    0x0f44                  DemarcateAD18
                    0x0f52                  DemarcateAD17
                    0x0f60                  DemarcateAD16
                    0x0f6e                  DemarcateAD15
                    0x0f7c                  DemarcateAD14
                    0x0f8a                  MarkAD2
                    0x0f98                  Marktem
                    0x0fa2                  DemarcateAD13
                    0x0fb0                  DemarcateAD12
                    0x0fbe                  DemarcateAD11
                    0x0fcc                  DemarcateAD10
                    0x0fda                  DemarcateAD9
                    0x0fe8                  DemarcateAD8
                    0x0ff6                  DemarcateAD7
                    0x1004                  DemarcateAD6
                    0x1012                  DemarcateAD5
                    0x1020                  DemarcateAD4
                    0x102e                  DemarcateAD3
                    0x103c                  DemarcateAD2
                    0x104a                  DemarcateAD1
                    0x1058                  DemarcateAD
                    0x1066                  alocholdetecet
                    0x1068                  ST_IRstatus
                    0x106a                  ItemID
                    0x106c                  Calibrate_Flag
                    0x106e                  alarmON
                    0x1070                  FirstIn
                    0x1072                  Unit_Select
                    0x1074                  Masklevel
                    0x1075                  TestMode
                    0x1076                  g_blow_time
                    0x1078                  g_rtc_counter
                    0x107a                  g_standby_time
                    0x107c                  g_backlight_time
                    0x107e                  BoolBatteryOFF
                    0x1080                  status_pc
                    0x1082                  CHK_PAPER_VAL
                    0x1084                  AlcTypeaddress
                    0x1086                  MAXCHAROld
                    0x1088                  OperatorNameTempStr
                    0x10ae                  DisplaydateTimeStr
                    0x10ea                  prevState
                    0x10ec                  AutooffSwitch
                    0x10ee                  ChoicePrint
                    0x10f0                  Pressflag
                    0x10f1                  PrintSec
                    0x10f2                  PrintCount
                    0x10f4                  offcount
                    0x10f6                  tick
                    0x10fa                  PrescreenState
                    0x10fc                  screenState
                    0x10fe                  ptrBigArialFont
                    0x1100                  ptrSmallAsianFont
                    0x1102                  ptrLargeAsianFont
                    0x1104                  blinkStatusValid
                    0x1106                  USBInHandle
                    0x1108                  USBOutHandle
                    0x110a                  TradeMark_Print
                    0x1118                  TradeMark_Title
                    0x1126                  Version
                    0x1134                  Serialnumber
                    0x114a                  IDStr
                    0x1150                  Sighstr
                    0x1154                  Bluetoothstr
                    0x1168                  EDITMarkstr
                    0x1174                  TemperatureExtremelow
                    0x11a6                  TemperatureExtremehigh
                    0x11da                  Beyond25mgl
                    0x11e8                  PeriodsText3
                    0x1214                  PeriodsText2
                    0x1236                  PeriodsText
                    0x125a                  G_Print
                    0x1268                  alcoholdetect
                    0x128e                  Nextinspection
                    0x12b6                  inspection
                    0x12c6                  Sun
                    0x12ce                  Sat
                    0x12d6                  Fri
                    0x12de                  Thu
                    0x12e6                  Wed
                    0x12ee                  Tue
                    0x12f6                  Mon
                    0x12fe                  print_add2
                    0x1306                  print_add1
                    0x1316                  WetCalibrationTest
                    0x133c                  DryCalibrationTest
                    0x1362                  CalibrationTeststr
                    0x138a                  W_Gaschoosestr
                    0x13b2                  caladjustWINstr
                    0x13ca                  caladjustBTNstr
                    0x13d8                  CaliPeriod
                    0x13f4                  CalibrationTest
                    0x1418                  Drycheck
                    0x142e                  Dryprodure
                    0x1440                  DryGasstr
                    0x1454                  WetGasstr
                    0x1468                  PROCCESING
                    0x1480                  PROCCESINGwait
                    0x14a6                  Totalstr
                    0x14b2                  Cancel
                    0x14c4                  DelectAllRecords
                    0x14ea                  NotmatchStr
                    0x1508                  SettingsuccessStr
                    0x1528                  PasswordSettingStr
                    0x154a                  Setpasswordstr
                    0x1566                  Pointr
                    0x156c                  Calibrationneed
                    0x158c                  LockStr
                    0x159a                  BeyondZeroStr
                    0x15a0                  ZeroStr
                    0x15a4                  NoAlocholstr
                    0x15d0                  BlowDiscontinuedstr
                    0x15ec                  UpArrowStr
                    0x15f4                  SoundStr
                    0x15fe                  Endstr
                    0x160a                  Beginningstr
                    0x1618                  Jumpstr
                    0x1628                  Discontinuedstr
                    0x1644                  Confirmpasswordstr
                    0x1676                  EnterPasswordStr
                    0x169e                  EEPROMEDIT
                    0x16b4                  record_refuse
                    0x16b8                  touch100
                    0x16ce                  Alcoholdetected
                    0x16f4                  Aircheckwinstr
                    0x1716                  Aircheckstr
                    0x1738                  Start
                    0x1744                  Start_test
                    0x1776                  Attachpipe
                    0x17a8                  NumStored
                    0x17ca                  PreCalDate
                    0x17f0                  DEL_RU
                    0x17fa                  DEL_EN
                    0x1802                  SPACE_RU
                    0x1810                  SPACE_EN
                    0x181c                  ChangeRUStr
                    0x1824                  ChangeENStr
                    0x182c                  DemarcateshowStr
                    0x1832                  DebugStr
                    0x1838                  WaitStr
                    0x1844                  ConnectToPCStr
                    0x1874                  PlseConnectToPCStr
                    0x18a4                  Item9Str
                    0x18cc                  Item8Str
                    0x18f4                  Item7Str
                    0x191c                  Item6Str
                    0x1944                  Item5Str
                    0x196c                  Item4Str
                    0x1994                  Item3Str
                    0x19bc                  Item2Str
                    0x19e4                  Item1Str
                    0x1a0c                  Item0Str
                    0x1a34                  ItemStr
                    0x1a5c                  ElevenMthStr
                    0x1a62                  NineMthStr
                    0x1a66                  SixMthStr
                    0x1a6a                  ThreeMthStr
                    0x1a6e                  TestMthStr
                    0x1a7a                  NineNumStr
                    0x1a82                  SevenNumStr
                    0x1a8a                  FineNumStr
                    0x1a92                  ThreeNumStr
                    0x1a9a                  OneNumStr
                    0x1aa2                  TestNumberStr
                    0x1aae                  Calibrate_Wet
                    0x1adc                  Calibrate_Dry
                    0x1b0a                  AdjustStr
                    0x1b16                  CalPerStr
                    0x1b24                  CalibrationPeriodStr
                    0x1b54                  SixStr
                    0x1b58                  FineStr
                    0x1b5c                  FourStr
                    0x1b60                  ThreeStr
                    0x1b64                  TwoStr
                    0x1b68                  OneStr
                    0x1b6c                  BlowPressStr
                    0x1b7e                  FineSecStr
                    0x1b82                  FourFineSecStr
                    0x1b8a                  FourSecStr
                    0x1b8e                  ThreeFineSecStr
                    0x1b96                  ThreeSecStr
                    0x1b9a                  TwoFineSecStr
                    0x1ba2                  BlowTimeStr
                    0x1bae                  BlowSettingStr
                    0x1bb4                  PowerOffStr
                    0x1bca                  ScreenPasswordStr
                    0x1bd0                  WrongPasswordStr
                    0x1bea                  PasswordStr
                    0x1bf8                  INPUTStr
                    0x1c02                  NoPaper
                    0x1c18                  Big20dStr
                    0x1c20                  Big0Str
                    0x1c26                  Equal0Str
                    0x1c2c                  PaperNumStr
                    0x1c50                  AutoPrintStr
                    0x1c68                  PrintSettingStr
                    0x1c76                  K2300StrA
                    0x1c80                  K2250StrA
                    0x1c8a                  K2200StrA
                    0x1c94                  K2150StrA
                    0x1c9e                  K2100StrA
                    0x1ca8                  K2050StrA
                    0x1cb2                  K2000StrA
                    0x1cbc                  KSettingStr
                    0x1cc2                  Celsius_Str
                    0x1cc6                  ug_lStr
                    0x1cd2                  mg_lStr
                    0x1cdc                  mg_mg100Str
                    0x1ce4                  mg_mlStr
                    0x1cf0                  ug_100mlStr
                    0x1d04                  g_100mlStr
                    0x1d14                  mg_1000mlStr
                    0x1d22                  mg_100Str
                    0x1d38                  mg_100mlStr
                    0x1d4a                  ThicknessStr
                    0x1d5a                  TestFailStr
                    0x1d70                  TestResultStr
                    0x1d84                  TenMinStr
                    0x1d96                  FineMinStr
                    0x1da6                  TwoMinStr
                    0x1db8                  OneMinStr
                    0x1dca                  abcStr
                    0x1dd0                  ABCStr
                    0x1dd6                  CheckScreenStr
                    0x1de4                  button_AutooffStr
                    0x1df0                  AutooffStr
                    0x1e16                  NumberStr
                    0x1e26                  TestModestr
                    0x1e32                  DateStr
                    0x1e3c                  TimeStr
                    0x1e48                  LatitudeStr
                    0x1e56                  LongitudeStr
                    0x1e66                  GPSStr
                    0x1e7c                  SettingStr
                    0x1e90                  RecordBKStr
                    0x1ed6                  RecordStr
                    0x1f1e                  NoStr
                    0x1f26                  YesStr
                    0x1f2c                  Yes_NoStr
                    0x1f3a                  ResetStr
                    0x1f46                  DeleteStr
                    0x1f56                  MasterStr
                    0x1f66                  AgentStr
                    0x1f74                  BlowTimePressStr
                    0x1f80                  PrintStr
                    0x1f8e                  MarkvaluStr
                    0x1fa0                  MarktemStr
                    0x1fb8                  MarkconsStr
                    0x1fcc                  DemarcateStr
                    0x1fd6                  DemarWendStr
                    0x1fdc                  ManualStr
                    0x1ff0                  UnitsStr
                    0x1ff6                  Noblowstr
                    0x200c                  RefuseStr
                    0x2018                  RepeatStr
                    0x2026                  PassivityStr
                    0x2040                  BlowStr
                    0x204e                  SetDateTimeStr
                    0x207a                  ExitStr
                    0x208c                  RightArrowStr
                    0x2090                  LeftArrowStr

.bss                0x2168        0xb9a
 .bss               0x2168        0x638 WAT89EC-8_RU_B-temp\MainDemo.o
                    0x22e8                  pEbzyq
                    0x22ea                  DisplayUnitStr
                    0x22fe                  Tem_Detect
                    0x2300                  ADLIST
                    0x2301                  DryorWet
                    0x2302                  Setpasswordposition
                    0x2304                  pSld2
                    0x2306                  pSld1
                    0x2308                  Settingposition
                    0x230a                  TTTemp1
                    0x230c                  TTTemp0
                    0x230e                  EETemp1
                    0x2310                  EETemp0
                    0x2312                  done
                    0x2314                  pWin
                    0x2316                  PST
                    0x2318                  pbutton
                    0x231a                  pbtn
                    0x231c                  BatteryValue
                    0x231e                  Valnum
                    0x2320                  dif
                    0x2322                  user_title
                    0x23c2                  Record_Over_Flag
                    0x23c4                  Marktimes
                    0x23c6                  wordval
                    0x23c8                  sys_datetime
                    0x23ce                  Marktemporary
                    0x23d0                  Mark_adc
                    0x23d2                  Demarcate_adc
                    0x23d4                  Demarcate_tem
                    0x23d6                  epPress
                    0x23d8                  initialpress
                    0x23da                  Temp_adc
                    0x23dc                  PasswordBuffer
                    0x23ea                  dateTimeStr
                    0x241e                  DateItemID
                    0x2420                  pListSaved
                    0x2422                  pDwnBottom
                    0x2424                  pDwnRight
                    0x2426                  pDwnTop
                    0x2428                  pDwnLeft
                    0x242a                  y
                    0x242c                  x
                    0x242e                  pSlider
                    0x2430                  pProgressBar
                    0x2432                  pGenObj
                    0x2434                  blackScheme
                    0x2436                  timemainScheme
                    0x2438                  mainScheme
                    0x243a                  yellowScheme
                    0x243c                  greenScheme
                    0x243e                  redScheme
                    0x2440                  failScheme
                    0x2442                  navScheme
                    0x2444                  meterScheme
                    0x2446                  timeScheme
                    0x2448                  alt5Scheme
                    0x244a                  alt4Scheme
                    0x244c                  alt3Scheme
                    0x244e                  alt2Scheme
                    0x2450                  altScheme
                    0x2452                  ToSendDataBuffer
                    0x2492                  ReceivedDataBuffer
                    0x24d2                  stringPrinted
                    0x24d4                  i_chk_paper
                    0x24d6                  Calibrate_Value
                    0x24f2                  timeSet
                    0x24f9                  softSec
                    0x24fa                  softMin
                    0x24fc                  softMS
                    0x24fe                  I2C_COUNTER
                    0x2500                  usbcount
                    0x2501                  usbcmd
                    0x2502                  i2busy
                    0x2503                  I2C_ERROR
                    0x2504                  jhm98
                    0x2506                  USB_sys_clk
                    0x2508                  sys_clk
                    0x250a                  old_date
                    0x2510                  sys_date
                    0x2516                  gps_date
                    0x251c                  eeset
                    0x2580                  latitude
                    0x2588                  longitude
                    0x2590                  satellite_cnt
                    0x2591                  satellite
                    0x2592                  t4len
                    0x2594                  uart4_rtimer
                    0x2596                  tx4_ptrend
                    0x2598                  tx4_ptr
                    0x259a                  tx4_buff
                    0x25a4                  rx4_ptr
                    0x25a6                  rx4_buff
                    0x279a                  TIMER_BASE
                    0x279c                  BEEP_TIME
 .bss               0x27a0        0x562 WAT89EC-8_RU_B-temp\printer.o
                    0x27a0                  Printbuff
                    0x28a0                  rx1_ptr
                    0x28a2                  rx1_buff
                    0x29a2                  t1len
                    0x29a4                  uart1_rtimer
                    0x29a6                  tx1_ptrend
                    0x29a8                  tx1_ptr
                    0x29aa                  tx1_buff
                    0x2aa9                  PrintDataBuff

_0318f46051c95d29
                    0x2e00         0x20
 _0318f46051c95d29
                    0x2e00         0x20 WAT89EC-8_RU_B-temp\usb_device.o
                    0x2e00                  BDT

.data               0x2d02         0xf4
 .data              0x2d02         0x80 WAT89EC-8_RU_B-temp\Beep.o
                    0x2d02                  Ad_Result
                    0x2d04                  Decade
                    0x2d2c                  ticknum
                    0x2d2e                  sum
                    0x2d32                  a_flag
                    0x2d34                  in
                    0x2d36                  Temsign_flag
                    0x2d38                  T2
                    0x2d3a                  T1
                    0x2d3c                  T0
                    0x2d3e                  T
                    0x2d40                  i
                    0x2d42                  j
                    0x2d44                  initial_value
                    0x2d46                  Markvalue
                    0x2d64                  MarkDensity
                    0x2d66                  max_num
                    0x2d68                  SampleCount
                    0x2d6a                  a
                    0x2d6c                  Temp3
                    0x2d6e                  Temp2
                    0x2d70                  Temp
                    0x2d72                  press
                    0x2d74                  flag
                    0x2d76                  Test_Result
 .data              0x2d82         0x74 WAT89EC-8_RU_B-temp\printer.o
                    0x2d82                  p_n
                    0x2d84                  Datanum
                    0x2d86                  Sprinnum
                    0x2d88                  endprint
                    0x2d8a                  SPrint
                    0x2d8c                  TestRecord
                    0x2dcc                  textbuffer

.data               0x2e20         0x48
 .data              0x2e20         0x48 WAT89EC-8_RU_B-temp\TouchScreen.o
                    0x2e20                  FlagTouchBit
                    0x2e22                  Screenstr
                    0x2e3a                  Touchstr
                    0x2e52                  PenStatus
                    0x2e54                  calibration
                    0x2e55                  debounce_counter
                    0x2e56                  adcPot
                    0x2e58                  adcY
                    0x2e5a                  adcX
                    0x2e5c                  _calYMax
                    0x2e5e                  _calYMin
                    0x2e60                  _calXMax
                    0x2e62                  _calXMin

.bss                0x2e68        0x132
 .bss               0x2e68         0x46 WAT89EC-8_RU_B-temp\Beep.o
                    0x2e68                  test_result
                    0x2e6a                  calculate_Temp
                    0x2e6e                  peak_got
                    0x2e70                  peak_compare_time
                    0x2e72                  peak_value
                    0x2e74                  sample_stop_value
                    0x2e76                  peak_sample_Count
                    0x2e78                  after_peak_count
                    0x2e7a                  nflag
                    0x2e7b                  MarkTem
                    0x2e7c                  Hi
                    0x2e7d                  Lw
                    0x2e7e                  cons_t
                    0x2e80                  nAdc
                    0x2e82                  MarkAdc
                    0x2e84                  suoitn2
                    0x2e86                  pp4
                    0x2e88                  pp3
                    0x2e8a                  pp2
                    0x2e8c                  pp1
                    0x2e8e                  befpeak_count
                    0x2e92                  sum_cons
                    0x2e96                  temp_sum
                    0x2e9a                  Kt
                    0x2e9c                  Cons
                    0x2e9e                  Tem_AD
                    0x2ea0                  AD_press
                    0x2ea2                  charge_flag
                    0x2ea4                  t
                    0x2ea6                  pppp
                    0x2ea8                  ppp
                    0x2eaa                  pulseCounter
                    0x2eac                  ok_pp
 .bss               0x2eae         0x42 WAT89EC-8_RU_B-temp\usb_device.o
                    0x2eae                  hid_report_in
                    0x2eb1                  hid_report_out
                    0x2eb4                  CtrlTrfData
                    0x2ebc                  SetupPkt
                    0x2ec4                  USBInData
                    0x2ec6                  USBInMaxPacketSize
                    0x2ec8                  BothEP0OutUOWNsSet
                    0x2eca                  USTATcopy
                    0x2ecc                  pDst
                    0x2ece                  controlTransferState
                    0x2ecf                  shortPacketStatus
                    0x2ed0                  pBDTEntryOut
                    0x2ed4                  pBDTEntryEP0OutNext
                    0x2ed6                  pBDTEntryEP0OutCurrent
                    0x2ed8                  USBAlternateInterface
                    0x2eda                  pBDTEntryIn
                    0x2ede                  outPipes
                    0x2ee5                  USBActiveConfiguration
                    0x2ee6                  USBDeviceState
                    0x2ee8                  RemoteWakeup
                    0x2eea                  inPipes
 .bss               0x2ef0         0x40 WAT89EC-8_RU_B-temp\Pgps.o
                    0x2ef0                  UARTFLAG
                    0x2ef2                  sLatitude
                    0x2f0e                  sLongitude
                    0x2f2c                  dval
 .bss               0x2f30         0x40 WAT89EC-8_RU_B-temp\Primitive.o
                    0x2f60                  _fontHeight
                    0x2f62                  _fontLastChar
                    0x2f64                  _fontFirstChar
                    0x2f66                  _font
                    0x2f68                  _cursorY
                    0x2f6a                  _cursorX
                    0x2f6c                  _lineThickness
                    0x2f6e                  _lineType
 .bss               0x2f70         0x2a WAT89EC-8_RU_B-temp\TouchScreen.o
                    0x2f70                  MATRIXstr
                    0x2f8c                  _calDivider
                    0x2f8e                  _calFn
                    0x2f90                  _calEn
                    0x2f92                  _calDn
                    0x2f94                  _calCn
                    0x2f96                  _calBn
                    0x2f98                  _calAn

.data               0x2f9a         0x28
 .data              0x2f9a         0x28 WAT89EC-8_RU_B-temp\rtcc.o
                    0x2f9a                  p
                    0x2fa1                  _date_str
                    0x2fb1                  _time_str

.bss                0x2fc2         0x56
 .bss               0x2fc2         0x1c WAT89EC-8_RU_B-temp\rtcc.o
                    0x2fc2                  ACK
                    0x2fc3                  TimeTemp
                    0x2fca                  save_delayt
                    0x2fcc                  _rtcc_flag
                    0x2fce                  _time_chk
                    0x2fd6                  _time
 .bss               0x2fde         0x18 WAT89EC-8_RU_B-temp\GOL.o
                    0x2fe4                  _rpnlEmbossSize
                    0x2fe6                  _rpnlEmbossDkColor
                    0x2fe8                  _rpnlEmbossLtColor
                    0x2fea                  _rpnlFaceColor
                    0x2fec                  _rpnlR
                    0x2fee                  _rpnlY2
                    0x2ff0                  _rpnlX2
                    0x2ff2                  _rpnlY1
                    0x2ff4                  _rpnlX1
 .bss               0x2ff6         0x14 WAT89EC-8_RU_B-temp\Slider.o
 .bss               0x300a          0xe WAT89EC-8_RU_B-temp\HX8347A.o
                    0x300a                  registed
                    0x300c                  _clipBottom
                    0x300e                  _clipRight
                    0x3010                  _clipTop
                    0x3012                  _clipLeft
                    0x3014                  _clipRgn
                    0x3016                  _color

.bss                0x2df6          0xa
 .bss               0x2df6          0xa WAT89EC-8_RU_B-temp\Picture.o

.data               0x3018          0xa
 .data              0x3018          0xa WAT89EC-8_RU_B-temp\ProgressBar.o

.bss                0x3022          0x8
 .bss               0x3022          0x8 WAT89EC-8_RU_B-temp\Button.o

.data               0x302a          0x8
 .data              0x302a          0x8 WAT89EC-8_RU_B-temp\GOL.o
                    0x302a                  _pRpnlBitmap
                    0x302c                  _pObjectFocused
                    0x302e                  _pDefaultGolScheme
                    0x3030                  _pGolObjects

.bss                0x3032         0x10
 .bss               0x3032          0x8 WAT89EC-8_RU_B-temp\RadioButton.o
 .bss               0x303a          0x8 WAT89EC-8_RU_B-temp\StaticText.o

.data               0x3042          0x6
 .data              0x3042          0x6 WAT89EC-8_RU_B-temp\EditBox.o
                    0x3042                  TestMiMaStr

.bss                0x3048          0xc
 .bss               0x3048          0x6 WAT89EC-8_RU_B-temp\ListBox.o
 .bss               0x304e          0x6 WAT89EC-8_RU_B-temp\ProgressBar.o

.data               0x3054          0xc
 .data              0x3054          0x6 WAT89EC-8_RU_B-temp\SideButtons.o
 .data              0x305a          0x6 c:/program files (x86)/microchip/mplab c30/bin/bin/../../lib\libc-coff.a(malloc.o)
                    0x305a                  _Size_block
                    0x305c                  _Aldata

.bss                0x3060          0x4
 .bss               0x3060          0x2 WAT89EC-8_RU_B-temp\CheckBox.o
 .bss               0x3062          0x2 WAT89EC-8_RU_B-temp\EditBox.o

.data               0x3064          0x4
 .data              0x3064          0x2 WAT89EC-8_RU_B-temp\Primitive.o
 .data              0x3066          0x2 WAT89EC-8_RU_B-temp\RadioButton.o
                    0x3066                  _pListButtons

.bss                0x3068          0x4
 .bss               0x3068          0x2 WAT89EC-8_RU_B-temp\usb_function_hid.o
                    0x3068                  active_protocol
                    0x3069                  idle_rate
 .bss               0x306a          0x2 WAT89EC-8_RU_B-temp\Window.o

.data               0x306c          0x2
 .data              0x306c          0x2 WAT89EC-8_RU_B-temp\ziku.o
                    0x306c                  Table_hz

.bss                0x306e          0x2
 .bss               0x306e          0x2 c:/program files (x86)/microchip/mplab c30/bin/bin/../../lib\libpic30-coff.a(brk.o)
                    0x306e                  __curbrk

.heap               0x3070       0x1388
 .heap              0x3070       0x1388 heap

_0310ec4051c95d17
                  0x002800         0x20
 _0310ec4051c95d17
                  0x002800         0x20 WAT89EC-8_RU_B-temp\MainDemo.o
                  0x002800                  ISRTable

.const            0x008000       0x658e load address 0x008000  
 .const           0x008000       0x4dc8 WAT89EC-8_RU_B-temp\Fonts.o
                  0x008000                  L24816
                  0x0091c2                  BigArial
                  0x0091c6                  L8835
                  0x00aed0                  GOLFontDefault
                  0x00aed4                  L6796
                  0x00c0a8                  GOLMediumFont
                  0x00c0ac                  L2700
                  0x00cdc4                  GOLSmallFont
 .const           0x00cdc8        0xf74 WAT89EC-8_RU_B-temp\ziku.o
                  0x00cdc8                  Table_kN
                  0x00ce49                  Table_kT
                  0x00d034                  Table_kVH
                  0x00d2dc                  Table_ASCII0816
 .const           0x00dd3c        0x324 WAT89EC-8_RU_B-temp\MainDemo.o
                  0x00dd3c                  UART4p
                  0x00dd44                  Blood
                  0x00dd54                  Breath
                  0x00dd70                  Cal
                  0x00dd7a                  Engineer2
                  0x00dd88                  Engineer1
                  0x00dd98                  Airblank2
                  0x00ddb2                  Airblank1
                  0x00ddc4                  EditID_Title
                  0x00ddda                  EditIDstr
                  0x00ddea                  BluetoothMstr
                  0x00de0c                  PrintMstr
                  0x00de2a                  Nonestr
                  0x00de4a                  Workstr
                  0x00de6c                  Matchstr
                  0x00de80                  no_bluetooth_button_RecordStr
 .const           0x00e060        0x242 WAT89EC-8_RU_B-temp\printer.o
 .const           0x00e2a2        0x14c WAT89EC-8_RU_B-temp\TouchScreen.o
 .const           0x00e3ee         0xc6 WAT89EC-8_RU_B-temp\usb_descriptors.o
                  0x00e3ee                  USB_SD_Ptr
                  0x00e3f4                  USB_CD_Ptr
                  0x00e3f6                  hid_rpt01
                  0x00e412                  sd002
                  0x00e440                  sd001
                  0x00e474                  sd000
                  0x00e478                  configDescriptor1
                  0x00e4a2                  device_dsc
 .const           0x00e4b4         0x6c WAT89EC-8_RU_B-temp\Pictures PIC24.o
                  0x00e4b4                  bluetooth
                  0x00e4ba                  printerbutton
                  0x00e4c0                  ag3
                  0x00e4c6                  gpslogo
                  0x00e4cc                  RIGHT
                  0x00e4d2                  LEFT
                  0x00e4d8                  HOME
                  0x00e4de                  arrowDown
                  0x00e4e4                  arrowUp
                  0x00e4ea                  Pictime
                  0x00e4f0                  Picsetting
                  0x00e4f6                  Picrecord
                  0x00e4fc                  PicGPS
                  0x00e502                  PC_copy
                  0x00e508                  set2
                  0x00e50e                  Test3
                  0x00e514                  Test2
                  0x00e51a                  Test1
 .const           0x00e520         0x3a WAT89EC-8_RU_B-temp\Beep.o
 .const           0x00e55a         0x1c WAT89EC-8_RU_B-temp\Pgps.o
                  0x00e55a                  RES_GPGGA
                  0x00e562                  RES_GPRMC
                  0x00e56a                  dayd
 .const           0x00e576         0x18 WAT89EC-8_RU_B-temp\rtcc.o

.text             0x00e58e       0x91d8
 .text            0x00e58e       0x91d8 WAT89EC-8_RU_B-temp\MainDemo.o
                  0x00e58e                  initialUART4
                  0x00e642                  delay_ms
                  0x00e64a                  initSPI2
                  0x00e682                  SPI2_WAIT
                  0x00e69a                  FLASH_RD
                  0x00e740                  write_bufferstart
                  0x00e774                  write_buffer
                  0x00e794                  write_bufferend
                  0x00e7b8                  AUTO_REWR
                  0x00e7fa                  CopyChar
                  0x00e80a                  CopyXCHARtoCHAR
                  0x00e81a                  SaveAdjust
                  0x00e840                  InitialSETTING
                  0x00e912                  DefaultSETTING
                  0x00eba0                  Markjudgement
                  0x00ec84                  DisplayThickness
                  0x00ed94                  GetThickness
                  0x00edf2                  readrecord
                  0x00ee32                  initimer1
                  0x00ee50                  TickInit
                  0x00ee5e                  StartScreen
                  0x00eefc                  UserInit
                  0x00ef04                  ProcessIO
                  0x00f0f0                  USBCBSuspend
                  0x00f0f2                  USBCBWakeFromSuspend
                  0x00f0f4                  USBCB_SOF_Handler
                  0x00f0f6                  USBCBErrorHandler
                  0x00f0f8                  USBCBCheckOtherReq
                  0x00f0fc                  USBCBStdSetDscHandler
                  0x00f0fe                  USBCBInitEP
                  0x00f116                  USBCBSendResume
                  0x00f12c                  MsgAlcoholdetect
                  0x00f158                  MsgAlcoholdetected
                  0x00f18c                  MsgBlowPlease
                  0x00f1ca                  MsgDatadeal
                  0x00f1cc                  MsgDISCONTINUED
                  0x00f216                  MsgSetting
                  0x00f284                  MsgSoundControl
                  0x00f2c8                  MsgDisplayMachineID
                  0x00f2fa                  MsgSetBackLight
                  0x00f328                  MsgToPC
                  0x00f340                  MsgWait
                  0x00f344                  MsgChoosegas
                  0x00f3b0                  MsggasCal
                  0x00f3fe                  MsgCalTestresult
                  0x00f43c                  MsgPowerOFF
                  0x00f43e                  MsgRefuse
                  0x00f480                  MsgAgent
                  0x00f4ec                  MsgMaster
                  0x00f578                  MsgSetpassword
                  0x00f5c0                  MsgOutcomeSetpassword
                  0x00f5f2                  MsgYesNo
                  0x00f654                  MsgChooseCal
                  0x00f68a                  MsgCalLock
                  0x00f6ac                  MsgBlueTooth
                  0x00f6f8                  MsgBlowPress
                  0x00f794                  MsgThickness
                  0x00f830                  MsgRecord
                  0x00f904                  SoundControlupdate
                  0x00f93e                  CreatePage
                  0x00fa32                  CreatePage0
                  0x00fa74                  CreateYesNo
                  0x00faf6                  CreateSetpassword
                  0x00fb36                  CreateMaster
                  0x00fbe4                  CreateAgent
                  0x00fc72                  CreateRefuse
                  0x00fcb2                  CreategasCal
                  0x00fd06                  CreateChoosegas
                  0x00fd46                  CreateDISCONTINUED
                  0x00fd86                  CreateSetting
                  0x00fde8                  ErrorTrap
                  0x00fe26                  Createautuooff
                  0x00fe76                  CreateEditeeprom
                  0x0100ce                  CreateEditTest
                  0x010238                  Msgcaladjust
                  0x0102d8                  MsgPrintSetting
                  0x0103aa                  CreateEditABC
                  0x0108d8                  updateDateTimeEb
                  0x01097e                  CreateUnitPDmenu
                  0x010a00                  CreateDateTime
                  0x010c58                  ShowUnitPullDownMeny
                  0x010d52                  CreateSoundControl
                  0x010da4                  ShowPullDownMenu
                  0x010e9e                  RemovePullDownMenu
                  0x010ef6                  MsgDateTime
                  0x010ffa                  UpdateRTCCDates
                  0x011054                  MsgUnitPDment
                  0x011176                  MsgSetDate
                  0x01129c                  CreateBlueTooth
                  0x011314                  CreateOutcomeSetpassword
                  0x011338                  CreateDemarcateshow
                  0x011458                  CreateDebug2
                  0x011514                  CreateDebug
                  0x0116c4                  CreatePowerOff
                  0x0116e0                  CreateWait
                  0x01172c                  Createcaladjust
                  0x0117d6                  CreateMark
                  0x0118ba                  CreateCalTestresult
                  0x01191e                  CreateDemarcate2
                  0x011a6c                  CreateDemarcate
                  0x011b92                  CreateCalLock
                  0x011bb2                  CreateConnectToPC
                  0x011bce                  CreateDatadeal
                  0x011bea                  CreateDisplayMachineID
                  0x011c90                  ResidentAlcoholdetected
                  0x011d0a                  Aircheck
                  0x011d3a                  CreateAlcoholdetect
                  0x011daa                  CreateMain
                  0x012016                  SaveReadItem
                  0x0120be                  MsgResult
                  0x01222a                  MsgMain
                  0x01235c                  Check_Screen
                  0x012372                  MsgMasterPassword
                  0x012470                  MsgScreenPassword
                  0x012550                  MsgPassword
                  0x01261a                  MsgEditPassword
                  0x012782                  MsgEditTest
                  0x012814                  MsgEditMark
                  0x01298c                  MsgEditID
                  0x012a72                  MsgEditMarkValue
                  0x012b8a                  MsgEditDemarcate
                  0x012d7e                  MsgEditeeprom
                  0x012e9a                  MsgEditInspectDate
                  0x012f6e                  MsgEditABC
                  0x012f70                  CopyTime
                  0x012ff4                  DisplayTestResult
                  0x013068                  CreateRecord
                  0x013420                  updateJumptoxEb
                  0x013464                  MsgJumptox
                  0x013598                  CreateJumptox
                  0x013806                  CreateBlowPlease
                  0x013860                  CreateItem
                  0x013ac4                  CreateChooseCal
                  0x013afe                  CreatePrintSetting
                  0x013c42                  CreateGPS
                  0x013ccc                  Battery
                  0x013d24                  ShowBatteryEmpty
                  0x013d34                  ShowBattery
                  0x013fdc                  CreateBlowPress
                  0x0140fc                  CreateThickness
                  0x014208                  CreateSetBackLight
                  0x014260                  CreateUnits
                  0x014290                  GetStatus
                  0x0142c8                  CreateCalibrate
                  0x0143ac                  MsgCalibrate
                  0x014404                  MsgMark
                  0x0144b4                  SaveItemByte
                  0x0145a6                  MsgItemEditABC
                  0x014bb8                  MsgItem
                  0x015070                  flash_buffer
                  0x0150ce                  solid_data
                  0x01512c                  writerecord
                  0x015262                  CreateResult
                  0x015384                  GOLDrawCallback
                  0x016a42                  testflash
                  0x016ad8                  MsgDemarcate
                  0x016c06                  MsgDemarcate2
                  0x016d36                  GOLMsgCallback
                  0x017312                  USER_USB_CALLBACK_EVENT_HANDLER
                  0x01732e                  main

.text             0x002820       0x1552
 .text            0x002820       0x1552 WAT89EC-8_RU_B-temp\printer.o
                  0x002820                  BCD_to_ASCII
                  0x002858                  ASCII_to_BCD
                  0x00288c                  ASCII_to_BCD_Eng
                  0x00290a                  Byte_to_PRN_TextBuffer
                  0x002918                  initialBlueTooth
                  0x002924                  initialUART1
                  0x002964                  _U1TXInterrupt
                  0x002998                  _U1RXInterrupt
                  0x0029e2                  UART1transtart
                  0x0029fc                  ChangeBRG
                  0x002a32                  initPrint
                  0x002a48                  StartPrint
                  0x002a7e                  Off_Printer
                  0x002a98                  Search_Table
                  0x002ad4                  Search_zero
                  0x002aec                  Print_Table_Text_Alcovisor_Mercury
                  0x002b44                  Print_Table_Text_YIQIHAO
                  0x002bb4                  Print_Table_Text_JILUHAO
                  0x002c2e                  Print_Table_Text_SHIJIAN
                  0x002cba                  Print_Table_Text_GUILING
                  0x002e58                  Last_Calibration_Date
                  0x002ea4                  Print_Table_Text_RefuseTest
                  0x002f0e                  Print_Table_Text_Discontiued
                  0x002f78                  Print_Table_Text_TestModePassive
                  0x002fac                  Print_Table_Text_TestModeManual
                  0x002ff8                  Print_Table_Text_JIUJINGHANLIANG
                  0x00301c                  Print_UnderLine
                  0x00306a                  Print_Table_Text_GPS
                  0x003176                  Print_Table_Text_temperature
                  0x0031f6                  Print_Table_Text_SignatureCheck
                  0x003244                  Print_Table_Text_Signature
                  0x003292                  Print_datareturn
                  0x0032a2                  Printdata
                  0x0032e2                  Print_ITEM
                  0x003378                  Print_TestRecord
                  0x00347e                  Print_Table_Text_RIQI
                  0x003558                  Print_Last_Calibration_Date
                  0x00361e                  Timeto_Calibration
                  0x003720                  Print_Table_Text_NONGDU
                  0x003bd8                  Print_Table_Text_Eng
                  0x003c76                  Inputdata

C:\Users\GEXUEY~1\AppData\Local\Temp/ccmCOYAl.s.scn1
                  0x003d72       0x138e
 C:\Users\GEXUEY~1\AppData\Local\Temp/ccmCOYAl.s.scn1
                  0x003d72       0x138e WAT89EC-8_RU_B-temp\Pictures PIC24.o
                  0x003d72                  L19239

C:\Users\GEXUEY~1\AppData\Local\Temp/ccmCOYAl.s.scn2
                  0x005100       0x138e
 C:\Users\GEXUEY~1\AppData\Local\Temp/ccmCOYAl.s.scn2
                  0x005100       0x138e WAT89EC-8_RU_B-temp\Pictures PIC24.o
                  0x005100                  L23331

C:\Users\GEXUEY~1\AppData\Local\Temp/ccmCOYAl.s.scn3
                  0x00648e       0x138e
 C:\Users\GEXUEY~1\AppData\Local\Temp/ccmCOYAl.s.scn3
                  0x00648e       0x138e WAT89EC-8_RU_B-temp\Pictures PIC24.o
                  0x00648e                  L13741

C:\Users\GEXUEY~1\AppData\Local\Temp/ccmCOYAl.s.scn4
                  0x017766       0x138e
 C:\Users\GEXUEY~1\AppData\Local\Temp/ccmCOYAl.s.scn4
                  0x017766       0x138e WAT89EC-8_RU_B-temp\Pictures PIC24.o
                  0x017766                  L20872

C:\Users\GEXUEY~1\AppData\Local\Temp/ccmCOYAl.s.scn5
                  0x018af4       0x138e
 C:\Users\GEXUEY~1\AppData\Local\Temp/ccmCOYAl.s.scn5
                  0x018af4       0x138e WAT89EC-8_RU_B-temp\Pictures PIC24.o
                  0x018af4                  L16058

C:\Users\GEXUEY~1\AppData\Local\Temp/ccmCOYAl.s.scn6
                  0x019e82       0x138e
 C:\Users\GEXUEY~1\AppData\Local\Temp/ccmCOYAl.s.scn6
                  0x019e82       0x138e WAT89EC-8_RU_B-temp\Pictures PIC24.o
                  0x019e82                  L17774

C:\Users\GEXUEY~1\AppData\Local\Temp/ccmCOYAl.s.scn7
                  0x01b210       0x138e
 C:\Users\GEXUEY~1\AppData\Local\Temp/ccmCOYAl.s.scn7
                  0x01b210       0x138e WAT89EC-8_RU_B-temp\Pictures PIC24.o
                  0x01b210                  L18421

C:\Users\GEXUEY~1\AppData\Local\Temp/ccmCOYAl.s.scn8
                  0x01c59e       0x138e
 C:\Users\GEXUEY~1\AppData\Local\Temp/ccmCOYAl.s.scn8
                  0x01c59e       0x138e WAT89EC-8_RU_B-temp\Pictures PIC24.o
                  0x01c59e                  L13806

C:\Users\GEXUEY~1\AppData\Local\Temp/ccmCOYAl.s.scn9
                  0x01d92c       0x138e
 C:\Users\GEXUEY~1\AppData\Local\Temp/ccmCOYAl.s.scn9
                  0x01d92c       0x138e WAT89EC-8_RU_B-temp\Pictures PIC24.o
                  0x01d92c                  L13960

.dinit            0x01ecba       0x12da
 .dinit           0x01ecba       0x12da data_init

.text             0x00168a       0x1076
 .text            0x00168a       0x1076 WAT89EC-8_RU_B-temp\TouchScreen.o
                  0x00168a                  delay7843
                  0x001696                  ADS7843_start
                  0x0016ae                  InitializeINT2
                  0x0016c6                  inti_time3
                  0x0016dc                  _INT2Interrupt
                  0x0016f4                  TouchGetX
                  0x001722                  TouchGetY
                  0x001756                  TouchGetMsg
                  0x0018aa                  TouchStoreCalibration
                  0x00198e                  TouchStoreCalibrationDefault
                  0x0019ae                  TouchLoadCalibration
                  0x001af6                  TouchLoadCalibrationDefault
                  0x001b0e                  setCalibrationMatrix
                  0x001d7c                  TouchGetCalPoints
                  0x001e64                  TouchCalibration
                  0x0024b4                  getDisplayPoint
                  0x002536                  WriteCharToADS7843
                  0x002566                  ReadFromCharFromADS7843
                  0x0025a0                  InitializeADS7843
                  0x002632                  _T3Interrupt

.text             0x01ff94        0xdba
 .text            0x01ff94        0xdba WAT89EC-8_RU_B-temp\Beep.o
                  0x01ff94                  _T2Interrupt
                  0x01ffc6                  BeepInit
                  0x01ffec                  delayus
                  0x01fffa                  delayms
                  0x02000e                  pumpinit
                  0x02001a                  adcinit
                  0x020038                  inti_time5
                  0x02004e                  Get_char
                  0x0200a2                  hex_to_char
                  0x0200aa                  HexChartoChar
                  0x0200d0                  HexChartoInt
                  0x0200fc                  hex_bcd2
                  0x020142                  inti_ads7822
                  0x02014a                  adc_delay
                  0x020158                  cons_calculate
                  0x020236                  Data_Calculate4
                  0x0202d0                  Hexshow
                  0x0202fc                  ByteToInt
                  0x020304                  Data_Calculate2
                  0x02032e                  Data_Calculate3
                  0x020354                  tem_interzone
                  0x020398                  Data_Calculate1
                  0x0204f6                  Cons_Aduj
                  0x020562                  ADC
                  0x0206c8                  Filter
                  0x02070c                  Adc_Count
                  0x020770                  Pump_action
                  0x0207f4                  Temperature
                  0x02084a                  prepare_and_Charge
                  0x02088c                  caiyang
                  0x0209ce                  Manual_Analyze
                  0x020bdc                  press_test
                  0x020c10                  ads7822
                  0x020c82                  _T5Interrupt

C:\Users\GEXUEY~1\AppData\Local\Temp/ccmCOYAl.s.scn12
                  0x020d4e        0xc86
 C:\Users\GEXUEY~1\AppData\Local\Temp/ccmCOYAl.s.scn12
                  0x020d4e        0xc86 WAT89EC-8_RU_B-temp\Pictures PIC24.o
                  0x020d4e                  L32236

C:\Users\GEXUEY~1\AppData\Local\Temp/ccmCOYAl.s.scn13
                  0x0219d4        0xc86
 C:\Users\GEXUEY~1\AppData\Local\Temp/ccmCOYAl.s.scn13
                  0x0219d4        0xc86 WAT89EC-8_RU_B-temp\Pictures PIC24.o
                  0x0219d4                  L594

C:\Users\GEXUEY~1\AppData\Local\Temp/ccmCOYAl.s.scn14
                  0x02265a        0xc86
 C:\Users\GEXUEY~1\AppData\Local\Temp/ccmCOYAl.s.scn14
                  0x02265a        0xc86 WAT89EC-8_RU_B-temp\Pictures PIC24.o
                  0x02265a                  L24912

C:\Users\GEXUEY~1\AppData\Local\Temp/ccmCOYAl.s.scn16
                  0x0232e0        0xc86
 C:\Users\GEXUEY~1\AppData\Local\Temp/ccmCOYAl.s.scn16
                  0x0232e0        0xc86 WAT89EC-8_RU_B-temp\Pictures PIC24.o
                  0x0232e0                  L18168

C:\Users\GEXUEY~1\AppData\Local\Temp/ccmCOYAl.s.scn17
                  0x023f66        0xc86
 C:\Users\GEXUEY~1\AppData\Local\Temp/ccmCOYAl.s.scn17
                  0x023f66        0xc86 WAT89EC-8_RU_B-temp\Pictures PIC24.o
                  0x023f66                  L10999

.text             0x024bec       0x1acc
 .text            0x024bec        0x948 WAT89EC-8_RU_B-temp\rtcc.o
                  0x024bec                  _T4Interrupt
                  0x024c14                  initI2
                  0x024c46                  error_i2
                  0x024c54                  I2C_start
                  0x024c92                  I2cWriteA
                  0x024d62                  I2cWrite
                  0x024d90                  I2cRead
                  0x024e9c                  b2h
                  0x024eaa                  RTCRead
                  0x024f4c                  RTCWrite
                  0x024ff8                  RTCCProcessEvents
                  0x0251aa                  RTCCUnlock
                  0x0251bc                  RTCCSet
                  0x0251ca                  RTCCInit
                  0x0251cc                  RTCCSetBinSec
                  0x0251f6                  RTCCSetBinMin
                  0x025220                  RTCCSetBinHour
                  0x025246                  RTCCCalculateWeekDay
                  0x025296                  RTCCSetBinDay
                  0x0252e6                  RTCCSetBinMonth
                  0x02530c                  RTCCSetBinYear
                  0x025344                  I2cInit
                  0x02534a                  start
                  0x02536a                  stop
                  0x02538a                  check
                  0x0253a4                  send
                  0x0253d8                  recive
                  0x025404                  ack
                  0x025418                  nack
                  0x02542c                  wrtoROM
                  0x02547c                  I2cRtccWriteByte
                  0x0254be                  SetRtccDefault
                  0x0254f0                  I2CRtccReadByte
 .text            0x025534        0x924 WAT89EC-8_RU_B-temp\usb_device.o
                  0x025534                  USBDeviceInit
                  0x0255aa                  USBWakeFromSuspend
                  0x0255bc                  USBSuspend
                  0x0255cc                  USBStallHandler
                  0x0255f2                  USBCtrlTrfRxService
                  0x0256ac                  USBPrepareForNextSetupTrf
                  0x0256e4                  USBCtrlTrfOutHandler
                  0x02570e                  USBCtrlTrfTxService
                  0x0257c6                  USBCtrlEPServiceComplete
                  0x025880                  USBCtrlTrfInHandler
                  0x0258d8                  USBStdGetDscHandler
                  0x02599a                  USBStdSetCfgHandler
                  0x0259da                  USBStdGetStatusHandler
                  0x025a5e                  USBStdFeatureReqHandler
                  0x025b02                  USBCheckStdRequest
                  0x025b8c                  USBCtrlTrfSetupHandler
                  0x025bbe                  USBCtrlEPService
                  0x025c0a                  _USB1Interrupt
                  0x025d0e                  USBConfigureEndpoint
                  0x025d3c                  USBEnableEndpoint
                  0x025d62                  USBStallEndpoint
                  0x025da2                  USBTransferOnePacket
                  0x025dea                  USBCancelIO
                  0x025e24                  USBDeviceDetach
                  0x025e2e                  USBDeviceAttach
 .text            0x025e58        0x860 WAT89EC-8_RU_B-temp\Primitive.o
                  0x025e58                  InitGraph
                  0x025e78                  Arc
                  0x02616c                  Line
                  0x0262fa                  Bevel
                  0x026440                  FillBevel
                  0x026530                  DrawPoly
                  0x026564                  SetFont
                  0x02657c                  OutChar
                  0x0265f8                  OutText
                  0x02661a                  OutTextXY
                  0x02663a                  GetTextWidth
                  0x02666c                  GetTextHeight
                  0x02667c                  GetImageWidth
                  0x02669a                  GetImageHeight

.text             0x00781c        0x74e
 .text            0x00781c        0x74e WAT89EC-8_RU_B-temp\HX8347A.o
                  0x00781c                  DelayMs
                  0x00782e                  DeviceSelect
                  0x007832                  DeviceDeselect
                  0x007836                  DeviceSetCommand
                  0x00783a                  DeviceSetData
                  0x00783e                  DeviceWrite
                  0x007848                  DeviceRead
                  0x007858                  DeviceInit
                  0x00789a                  SetAddress
                  0x0078fc                  PutImage16BPP
                  0x0079ae                  PutImage8BPP
                  0x007a8a                  PutImage4BPP
                  0x007b74                  PutImage1BPP
                  0x007c6c                  PutImage
                  0x007cd8                  ClearDevice
                  0x007d0c                  Bar
                  0x007d88                  PutPixel
                  0x007dd0                  SetReg
                  0x007dea                  ResetDevice

.text             0x0266b8       0x1bd6
 .text            0x0266b8        0x618 WAT89EC-8_RU_B-temp\Slider.o
                  0x0266b8                  SldSetThumbSize
                  0x0266d8                  SldGetHeight
                  0x026712                  SldGetWidth
                  0x02674c                  SldCreate
                  0x0267c0                  SldGetMinMaxPos
                  0x0267ee                  SldSetPos
                  0x026858                  SldSetRange
                  0x0268a2                  SldSetPage
                  0x0268ca                  SldMsgDefault
                  0x02698c                  SldTranslateMsg
                  0x026a00                  SldDraw
 .text            0x026cd0        0x572 WAT89EC-8_RU_B-temp\ListBox.o
                  0x026cd0                  LbAddItem
                  0x026d26                  LbCreate
                  0x026dce                  LbDelItem
                  0x026e00                  LbDelItemsList
                  0x026e1a                  LbGetSel
                  0x026e32                  LbChangeSel
                  0x026e5a                  LbSetFocusedItem
                  0x026e84                  LbGetFocusedItem
                  0x026ea6                  LbTranslateMsg
                  0x026f0a                  LbMsgDefault
                  0x026fc6                  LbDraw
 .text            0x027242        0x50a WAT89EC-8_RU_B-temp\GOL.o
                  0x027242                  GOLCanBeFocused
                  0x027266                  GOLGetFocusNext
                  0x027296                  GOLSetFocus
                  0x0272bc                  GOLCreateScheme
                  0x0272f4                  GOLInit
                  0x0272fe                  GOLFree
                  0x027326                  GOLFindObject
                  0x027338                  GOLAddObject
                  0x027354                  GOLDraw
                  0x0273fe                  GOLRedrawRec
                  0x027440                  GOLMsg
                  0x027590                  GOLPanelDrawTsk
 .text            0x02774c        0x41a WAT89EC-8_RU_B-temp\RadioButton.o
                  0x02774c                  RbCreate
                  0x0277da                  RbSetCheck
                  0x0277f8                  RbGetCheck
                  0x027810                  RbSetText
                  0x027824                  RbMsgDefault
                  0x027950                  RbTranslateMsg
                  0x0279a6                  RbDraw
 .text            0x027b66        0x3ce WAT89EC-8_RU_B-temp\Pgps.o
                  0x027b66                  hex_to_bcd
                  0x027b84                  bcd_to_hex
                  0x027b92                  _T1Interrupt
                  0x027bb6                  _U4TXInterrupt
                  0x027be0                  _U4RXInterrupt
                  0x027c0a                  dxdate
                  0x027c42                  u4_hand
 .text            0x027f34        0x35a WAT89EC-8_RU_B-temp\EditBox.o
                  0x027f34                  EbSetText
                  0x027f56                  EbCreate
                  0x027fd6                  EbAddChar
                  0x028028                  EbAddChar2
                  0x028076                  EbAddChar3
                  0x02809e                  EbDeleteChar
                  0x0280bc                  EbTranslateMsg
                  0x028108                  EbMsgDefault
                  0x028146                  EbDraw

C:\Users\GEXUEY~1\AppData\Local\Temp/ccmCOYAl.s.scn15
                  0x02828e        0x326
 C:\Users\GEXUEY~1\AppData\Local\Temp/ccmCOYAl.s.scn15
                  0x02828e        0x326 WAT89EC-8_RU_B-temp\Pictures PIC24.o
                  0x02828e                  L31403

C:\Users\GEXUEY~1\AppData\Local\Temp/ccmCOYAl.s.scn18
                  0x0285b4        0x326
 C:\Users\GEXUEY~1\AppData\Local\Temp/ccmCOYAl.s.scn18
                  0x0285b4        0x326 WAT89EC-8_RU_B-temp\Pictures PIC24.o
                  0x0285b4                  L18120

.text             0x0288da       0x118a
 .text            0x0288da        0x2f2 WAT89EC-8_RU_B-temp\Button.o
                  0x0288da                  BtnCreate
                  0x02896c                  BtnSetText
                  0x02898e                  BtnMsgDefault
                  0x0289c4                  BtnTranslateMsg
                  0x028a40                  BtnDraw
 .text            0x028bcc        0x2d2 WAT89EC-8_RU_B-temp\CheckBox.o
                  0x028bcc                  CbCreate
                  0x028c3e                  CbSetText
                  0x028c52                  CbMsgDefault
                  0x028c9c                  CbTranslateMsg
                  0x028cf6                  CbDraw
 .text            0x028e9e        0x2cc WAT89EC-8_RU_B-temp\ProgressBar.o
                  0x028e9e                  PbShortToString
                  0x028ef4                  PbCreate
                  0x028f58                  PbSetPos
                  0x028f66                  PbTranslateMsg
                  0x028f98                  PbDraw
 .text            0x02916a        0x218 WAT89EC-8_RU_B-temp\Window.o
                  0x02916a                  WndCreate
                  0x0291de                  WndSetText
                  0x0291f2                  WndTranslateMsg
                  0x029246                  WndDraw
 .text            0x029382        0x20e WAT89EC-8_RU_B-temp\StaticText.o
                  0x029382                  StCreate
                  0x0293f6                  StSetText
                  0x02940a                  StTranslateMsg
                  0x029442                  StDraw
 .text            0x029590        0x1f4 WAT89EC-8_RU_B-temp\EEPROM.o
                  0x029590                  EEPROMInit
                  0x0295d2                  SPIPut
                  0x0295e6                  EEPROMWriteEnable
                  0x0295f2                  EEPROMReadStatus
                  0x02960e                  EEPROMWriteByte
                  0x029644                  EEPROMReadByte
                  0x02966a                  EEPROMWriteWord
                  0x02967e                  EEPROMReadWord
                  0x02969e                  EEPROMWriteArray
                  0x029748                  EEPROMReadArray
                  0x029780                  delay
 .text            0x029784        0x1ca WAT89EC-8_RU_B-temp\Picture.o
                  0x029784                  PictCreate
                  0x0297e6                  PictTranslateMsg
                  0x029818                  PictDraw
 .text            0x02994e        0x116 WAT89EC-8_RU_B-temp\usb_function_hid.o
                  0x02994e                  USBCheckHIDRequest

C:\Users\GEXUEY~1\AppData\Local\Temp/ccmCOYAl.s.scn10
                  0x029a64        0x110
 C:\Users\GEXUEY~1\AppData\Local\Temp/ccmCOYAl.s.scn10
                  0x029a64        0x110 WAT89EC-8_RU_B-temp\Pictures PIC24.o
                  0x029a64                  L10596

C:\Users\GEXUEY~1\AppData\Local\Temp/ccmCOYAl.s.scn11
                  0x029b74        0x110
 C:\Users\GEXUEY~1\AppData\Local\Temp/ccmCOYAl.s.scn11
                  0x029b74        0x110 WAT89EC-8_RU_B-temp\Pictures PIC24.o
                  0x029b74                  L10782

.text             0x007f6a         0x80
 .text            0x007f6a         0x4c WAT89EC-8_RU_B-temp\SideButtons.o
                  0x007f6a                  Power_ON_OFF
                  0x007f6c                  SideButtonsMsg
 .text            0x007fb6         0x34 WAT89EC-8_RU_B-temp\usb_hal_pic24.o
                  0x007fb6                  USBSleepOnSuspend

.isr              0x007fea          0x2
 .isr             0x007fea          0x2 default_isr
                  0x007fea                  _DefaultInterrupt
